
final.elf:     file format elf32-littlearm


Disassembly of section .text:

08000000 <vectors>:
 8000000:	00 00 02 20 c7 02 00 08 c1 02 00 08 c1 02 00 08     ... ............
 8000010:	c1 02 00 08 c1 02 00 08 c1 02 00 08 00 00 00 00     ................
	...
 800002c:	c1 02 00 08 c1 02 00 08 00 00 00 00 c1 02 00 08     ................
 800003c:	c1 02 00 08 c1 02 00 08 c1 02 00 08 c1 02 00 08     ................
 800004c:	c1 02 00 08 00 00 00 00 c1 02 00 08 c1 02 00 08     ................
 800005c:	c1 02 00 08 c1 02 00 08 c1 02 00 08 c1 02 00 08     ................
 800006c:	c1 02 00 08 c1 02 00 08 c1 02 00 08 c1 02 00 08     ................
 800007c:	c1 02 00 08 c1 02 00 08 c1 02 00 08 c1 02 00 08     ................
 800008c:	c1 02 00 08 c1 02 00 08 c1 02 00 08 c1 02 00 08     ................
 800009c:	c1 02 00 08 c1 02 00 08 c1 02 00 08 c1 02 00 08     ................
 80000ac:	c1 02 00 08 c1 02 00 08 c1 02 00 08 c1 02 00 08     ................
 80000bc:	c1 02 00 08 c1 02 00 08 c1 02 00 08 c1 02 00 08     ................
 80000cc:	c1 02 00 08 c1 02 00 08 c1 02 00 08 c1 02 00 08     ................
 80000dc:	c1 02 00 08 c1 02 00 08 c1 02 00 08 c1 02 00 08     ................
 80000ec:	c1 02 00 08 c1 02 00 08 c1 02 00 08 c1 02 00 08     ................
 80000fc:	c1 02 00 08 c1 02 00 08 c1 02 00 08 c1 02 00 08     ................
 800010c:	c1 02 00 08 c1 02 00 08 c1 02 00 08 c1 02 00 08     ................
 800011c:	c1 02 00 08 c1 02 00 08 c1 02 00 08 c1 02 00 08     ................
 800012c:	c1 02 00 08 c1 02 00 08 c1 02 00 08 c1 02 00 08     ................
 800013c:	c1 02 00 08 c1 02 00 08 c1 02 00 08 c1 02 00 08     ................
 800014c:	c1 02 00 08 c1 02 00 08 c1 02 00 08 c1 02 00 08     ................
 800015c:	c1 02 00 08 c1 02 00 08 c1 02 00 08 c1 02 00 08     ................
 800016c:	c1 02 00 08 c1 02 00 08 c1 02 00 08 c1 02 00 08     ................
 800017c:	c1 02 00 08 c1 02 00 08 c1 02 00 08                 ............

08000188 <__do_global_dtors_aux>:
 8000188:	b510      	push	{r4, lr}
 800018a:	4c05      	ldr	r4, [pc, #20]	; (80001a0 <__do_global_dtors_aux+0x18>)
 800018c:	7823      	ldrb	r3, [r4, #0]
 800018e:	b933      	cbnz	r3, 800019e <__do_global_dtors_aux+0x16>
 8000190:	4b04      	ldr	r3, [pc, #16]	; (80001a4 <__do_global_dtors_aux+0x1c>)
 8000192:	b113      	cbz	r3, 800019a <__do_global_dtors_aux+0x12>
 8000194:	4804      	ldr	r0, [pc, #16]	; (80001a8 <__do_global_dtors_aux+0x20>)
 8000196:	f3af 8000 	nop.w
 800019a:	2301      	movs	r3, #1
 800019c:	7023      	strb	r3, [r4, #0]
 800019e:	bd10      	pop	{r4, pc}
 80001a0:	20000984 	.word	0x20000984
 80001a4:	00000000 	.word	0x00000000
 80001a8:	08003108 	.word	0x08003108

080001ac <frame_dummy>:
 80001ac:	b508      	push	{r3, lr}
 80001ae:	4b03      	ldr	r3, [pc, #12]	; (80001bc <frame_dummy+0x10>)
 80001b0:	b11b      	cbz	r3, 80001ba <frame_dummy+0xe>
 80001b2:	4903      	ldr	r1, [pc, #12]	; (80001c0 <frame_dummy+0x14>)
 80001b4:	4803      	ldr	r0, [pc, #12]	; (80001c4 <frame_dummy+0x18>)
 80001b6:	f3af 8000 	nop.w
 80001ba:	bd08      	pop	{r3, pc}
 80001bc:	00000000 	.word	0x00000000
 80001c0:	20000988 	.word	0x20000988
 80001c4:	08003108 	.word	0x08003108

080001c8 <_stack_init>:
 80001c8:	2a00      	cmp	r2, #0
 80001ca:	d001      	beq.n	80001d0 <_stack_init+0x8>
 80001cc:	f502 7a80 	add.w	sl, r2, #256	; 0x100
 80001d0:	4770      	bx	lr
 80001d2:	bf00      	nop

080001d4 <_mainCRTStartup>:
 80001d4:	2016      	movs	r0, #22
 80001d6:	a131      	add	r1, pc, #196	; (adr r1, 800029c <_mainCRTStartup+0xc8>)
 80001d8:	beab      	bkpt	0x00ab
 80001da:	4830      	ldr	r0, [pc, #192]	; (800029c <_mainCRTStartup+0xc8>)
 80001dc:	6841      	ldr	r1, [r0, #4]
 80001de:	2900      	cmp	r1, #0
 80001e0:	d001      	beq.n	80001e6 <_mainCRTStartup+0x12>
 80001e2:	4a36      	ldr	r2, [pc, #216]	; (80002bc <_mainCRTStartup+0xe8>)
 80001e4:	6011      	str	r1, [r2, #0]
 80001e6:	6801      	ldr	r1, [r0, #0]
 80001e8:	2900      	cmp	r1, #0
 80001ea:	d101      	bne.n	80001f0 <_mainCRTStartup+0x1c>
 80001ec:	4932      	ldr	r1, [pc, #200]	; (80002b8 <_mainCRTStartup+0xe4>)
 80001ee:	6001      	str	r1, [r0, #0]
 80001f0:	6881      	ldr	r1, [r0, #8]
 80001f2:	68c2      	ldr	r2, [r0, #12]
 80001f4:	4b2a      	ldr	r3, [pc, #168]	; (80002a0 <_mainCRTStartup+0xcc>)
 80001f6:	2900      	cmp	r1, #0
 80001f8:	d000      	beq.n	80001fc <_mainCRTStartup+0x28>
 80001fa:	460b      	mov	r3, r1
 80001fc:	469d      	mov	sp, r3
 80001fe:	f7ff ffe3 	bl	80001c8 <_stack_init>
 8000202:	2100      	movs	r1, #0
 8000204:	468b      	mov	fp, r1
 8000206:	460f      	mov	r7, r1
 8000208:	4826      	ldr	r0, [pc, #152]	; (80002a4 <_mainCRTStartup+0xd0>)
 800020a:	4a27      	ldr	r2, [pc, #156]	; (80002a8 <_mainCRTStartup+0xd4>)
 800020c:	1a12      	subs	r2, r2, r0
 800020e:	f000 fb05 	bl	800081c <memset>
 8000212:	f002 fd6b 	bl	8002cec <initialise_monitor_handles>
 8000216:	2015      	movs	r0, #21
 8000218:	4926      	ldr	r1, [pc, #152]	; (80002b4 <_mainCRTStartup+0xe0>)
 800021a:	beab      	bkpt	0x00ab
 800021c:	4925      	ldr	r1, [pc, #148]	; (80002b4 <_mainCRTStartup+0xe0>)
 800021e:	6809      	ldr	r1, [r1, #0]
 8000220:	2000      	movs	r0, #0
 8000222:	b401      	push	{r0}
 8000224:	780b      	ldrb	r3, [r1, #0]
 8000226:	3101      	adds	r1, #1
 8000228:	2b00      	cmp	r3, #0
 800022a:	d015      	beq.n	8000258 <_mainCRTStartup+0x84>
 800022c:	2b20      	cmp	r3, #32
 800022e:	d0f9      	beq.n	8000224 <_mainCRTStartup+0x50>
 8000230:	2b22      	cmp	r3, #34	; 0x22
 8000232:	d001      	beq.n	8000238 <_mainCRTStartup+0x64>
 8000234:	2b27      	cmp	r3, #39	; 0x27
 8000236:	d101      	bne.n	800023c <_mainCRTStartup+0x68>
 8000238:	001a      	movs	r2, r3
 800023a:	e001      	b.n	8000240 <_mainCRTStartup+0x6c>
 800023c:	2220      	movs	r2, #32
 800023e:	3901      	subs	r1, #1
 8000240:	b402      	push	{r1}
 8000242:	3001      	adds	r0, #1
 8000244:	780b      	ldrb	r3, [r1, #0]
 8000246:	3101      	adds	r1, #1
 8000248:	2b00      	cmp	r3, #0
 800024a:	d005      	beq.n	8000258 <_mainCRTStartup+0x84>
 800024c:	429a      	cmp	r2, r3
 800024e:	d1f9      	bne.n	8000244 <_mainCRTStartup+0x70>
 8000250:	2200      	movs	r2, #0
 8000252:	1e4b      	subs	r3, r1, #1
 8000254:	701a      	strb	r2, [r3, #0]
 8000256:	e7e5      	b.n	8000224 <_mainCRTStartup+0x50>
 8000258:	4669      	mov	r1, sp
 800025a:	0002      	movs	r2, r0
 800025c:	0092      	lsls	r2, r2, #2
 800025e:	446a      	add	r2, sp
 8000260:	466b      	mov	r3, sp
 8000262:	429a      	cmp	r2, r3
 8000264:	d906      	bls.n	8000274 <_mainCRTStartup+0xa0>
 8000266:	3a04      	subs	r2, #4
 8000268:	6814      	ldr	r4, [r2, #0]
 800026a:	681d      	ldr	r5, [r3, #0]
 800026c:	6015      	str	r5, [r2, #0]
 800026e:	601c      	str	r4, [r3, #0]
 8000270:	3304      	adds	r3, #4
 8000272:	e7f6      	b.n	8000262 <_mainCRTStartup+0x8e>
 8000274:	466c      	mov	r4, sp
 8000276:	2507      	movs	r5, #7
 8000278:	43ac      	bics	r4, r5
 800027a:	46a5      	mov	sp, r4
 800027c:	0004      	movs	r4, r0
 800027e:	000d      	movs	r5, r1
 8000280:	480a      	ldr	r0, [pc, #40]	; (80002ac <_mainCRTStartup+0xd8>)
 8000282:	2800      	cmp	r0, #0
 8000284:	d002      	beq.n	800028c <_mainCRTStartup+0xb8>
 8000286:	480a      	ldr	r0, [pc, #40]	; (80002b0 <_mainCRTStartup+0xdc>)
 8000288:	f000 fbdc 	bl	8000a44 <atexit>
 800028c:	f000 faa2 	bl	80007d4 <__libc_init_array>
 8000290:	0020      	movs	r0, r4
 8000292:	0029      	movs	r1, r5
 8000294:	f000 f8b4 	bl	8000400 <main>
 8000298:	f000 fa8c 	bl	80007b4 <exit>
 800029c:	20000004 	.word	0x20000004
 80002a0:	00000000 	.word	0x00000000
 80002a4:	20000984 	.word	0x20000984
 80002a8:	20000b10 	.word	0x20000b10
 80002ac:	08000a45 	.word	0x08000a45
 80002b0:	08000d25 	.word	0x08000d25
 80002b4:	20000114 	.word	0x20000114
 80002b8:	20000b10 	.word	0x20000b10
 80002bc:	2000096c 	.word	0x2000096c

080002c0 <Default_Handler>:
 80002c0:	b480      	push	{r7}
 80002c2:	af00      	add	r7, sp, #0
 80002c4:	e7fe      	b.n	80002c4 <Default_Handler+0x4>

080002c6 <Reset_Handler>:
 80002c6:	b580      	push	{r7, lr}
 80002c8:	b086      	sub	sp, #24
 80002ca:	af00      	add	r7, sp, #0
 80002cc:	4a1a      	ldr	r2, [pc, #104]	; (8000338 <Reset_Handler+0x72>)
 80002ce:	4b1b      	ldr	r3, [pc, #108]	; (800033c <Reset_Handler+0x76>)
 80002d0:	1ad3      	subs	r3, r2, r3
 80002d2:	607b      	str	r3, [r7, #4]
 80002d4:	4b19      	ldr	r3, [pc, #100]	; (800033c <Reset_Handler+0x76>)
 80002d6:	617b      	str	r3, [r7, #20]
 80002d8:	4b19      	ldr	r3, [pc, #100]	; (8000340 <Reset_Handler+0x7a>)
 80002da:	613b      	str	r3, [r7, #16]
 80002dc:	2300      	movs	r3, #0
 80002de:	60fb      	str	r3, [r7, #12]
 80002e0:	e00a      	b.n	80002f8 <Reset_Handler+0x32>
 80002e2:	693a      	ldr	r2, [r7, #16]
 80002e4:	1c53      	adds	r3, r2, #1
 80002e6:	613b      	str	r3, [r7, #16]
 80002e8:	697b      	ldr	r3, [r7, #20]
 80002ea:	1c59      	adds	r1, r3, #1
 80002ec:	6179      	str	r1, [r7, #20]
 80002ee:	7812      	ldrb	r2, [r2, #0]
 80002f0:	701a      	strb	r2, [r3, #0]
 80002f2:	68fb      	ldr	r3, [r7, #12]
 80002f4:	3301      	adds	r3, #1
 80002f6:	60fb      	str	r3, [r7, #12]
 80002f8:	68fa      	ldr	r2, [r7, #12]
 80002fa:	687b      	ldr	r3, [r7, #4]
 80002fc:	429a      	cmp	r2, r3
 80002fe:	d3f0      	bcc.n	80002e2 <Reset_Handler+0x1c>
 8000300:	4a10      	ldr	r2, [pc, #64]	; (8000344 <Reset_Handler+0x7e>)
 8000302:	4b11      	ldr	r3, [pc, #68]	; (8000348 <Reset_Handler+0x82>)
 8000304:	1ad3      	subs	r3, r2, r3
 8000306:	607b      	str	r3, [r7, #4]
 8000308:	4b0f      	ldr	r3, [pc, #60]	; (8000348 <Reset_Handler+0x82>)
 800030a:	617b      	str	r3, [r7, #20]
 800030c:	2300      	movs	r3, #0
 800030e:	60bb      	str	r3, [r7, #8]
 8000310:	e007      	b.n	8000322 <Reset_Handler+0x5c>
 8000312:	697b      	ldr	r3, [r7, #20]
 8000314:	1c5a      	adds	r2, r3, #1
 8000316:	617a      	str	r2, [r7, #20]
 8000318:	2200      	movs	r2, #0
 800031a:	701a      	strb	r2, [r3, #0]
 800031c:	68bb      	ldr	r3, [r7, #8]
 800031e:	3301      	adds	r3, #1
 8000320:	60bb      	str	r3, [r7, #8]
 8000322:	68ba      	ldr	r2, [r7, #8]
 8000324:	687b      	ldr	r3, [r7, #4]
 8000326:	429a      	cmp	r2, r3
 8000328:	d3f3      	bcc.n	8000312 <Reset_Handler+0x4c>
 800032a:	f000 f869 	bl	8000400 <main>
 800032e:	bf00      	nop
 8000330:	3718      	adds	r7, #24
 8000332:	46bd      	mov	sp, r7
 8000334:	bd80      	pop	{r7, pc}
 8000336:	bf00      	nop
 8000338:	20000978 	.word	0x20000978
 800033c:	20000000 	.word	0x20000000
 8000340:	08003114 	.word	0x08003114
 8000344:	20000b10 	.word	0x20000b10
 8000348:	20000984 	.word	0x20000984

0800034c <USART_Init>:
 800034c:	b480      	push	{r7}
 800034e:	b083      	sub	sp, #12
 8000350:	af00      	add	r7, sp, #0
 8000352:	6078      	str	r0, [r7, #4]
 8000354:	687b      	ldr	r3, [r7, #4]
 8000356:	68db      	ldr	r3, [r3, #12]
 8000358:	f423 5200 	bic.w	r2, r3, #8192	; 0x2000
 800035c:	687b      	ldr	r3, [r7, #4]
 800035e:	60da      	str	r2, [r3, #12]
 8000360:	687b      	ldr	r3, [r7, #4]
 8000362:	68db      	ldr	r3, [r3, #12]
 8000364:	f403 5280 	and.w	r2, r3, #4096	; 0x1000
 8000368:	687b      	ldr	r3, [r7, #4]
 800036a:	60da      	str	r2, [r3, #12]
 800036c:	687b      	ldr	r3, [r7, #4]
 800036e:	691b      	ldr	r3, [r3, #16]
 8000370:	687b      	ldr	r3, [r7, #4]
 8000372:	2200      	movs	r2, #0
 8000374:	611a      	str	r2, [r3, #16]
 8000376:	687b      	ldr	r3, [r7, #4]
 8000378:	68db      	ldr	r3, [r3, #12]
 800037a:	f423 6280 	bic.w	r2, r3, #1024	; 0x400
 800037e:	687b      	ldr	r3, [r7, #4]
 8000380:	60da      	str	r2, [r3, #12]
 8000382:	687b      	ldr	r3, [r7, #4]
 8000384:	68db      	ldr	r3, [r3, #12]
 8000386:	f423 4200 	bic.w	r2, r3, #32768	; 0x8000
 800038a:	687b      	ldr	r3, [r7, #4]
 800038c:	60da      	str	r2, [r3, #12]
 800038e:	687b      	ldr	r3, [r7, #4]
 8000390:	f242 028d 	movw	r2, #8333	; 0x208d
 8000394:	609a      	str	r2, [r3, #8]
 8000396:	687b      	ldr	r3, [r7, #4]
 8000398:	68db      	ldr	r3, [r3, #12]
 800039a:	f043 020c 	orr.w	r2, r3, #12
 800039e:	687b      	ldr	r3, [r7, #4]
 80003a0:	60da      	str	r2, [r3, #12]
 80003a2:	687b      	ldr	r3, [r7, #4]
 80003a4:	68db      	ldr	r3, [r3, #12]
 80003a6:	f443 5200 	orr.w	r2, r3, #8192	; 0x2000
 80003aa:	687b      	ldr	r3, [r7, #4]
 80003ac:	60da      	str	r2, [r3, #12]
 80003ae:	bf00      	nop
 80003b0:	370c      	adds	r7, #12
 80003b2:	46bd      	mov	sp, r7
 80003b4:	bc80      	pop	{r7}
 80003b6:	4770      	bx	lr

080003b8 <USART_Read>:
 80003b8:	b480      	push	{r7}
 80003ba:	b087      	sub	sp, #28
 80003bc:	af00      	add	r7, sp, #0
 80003be:	60f8      	str	r0, [r7, #12]
 80003c0:	60b9      	str	r1, [r7, #8]
 80003c2:	607a      	str	r2, [r7, #4]
 80003c4:	2300      	movs	r3, #0
 80003c6:	617b      	str	r3, [r7, #20]
 80003c8:	e010      	b.n	80003ec <USART_Read+0x34>
 80003ca:	bf00      	nop
 80003cc:	68fb      	ldr	r3, [r7, #12]
 80003ce:	681b      	ldr	r3, [r3, #0]
 80003d0:	f003 0320 	and.w	r3, r3, #32
 80003d4:	2b00      	cmp	r3, #0
 80003d6:	d0f9      	beq.n	80003cc <USART_Read+0x14>
 80003d8:	68fb      	ldr	r3, [r7, #12]
 80003da:	6859      	ldr	r1, [r3, #4]
 80003dc:	697b      	ldr	r3, [r7, #20]
 80003de:	68ba      	ldr	r2, [r7, #8]
 80003e0:	4413      	add	r3, r2
 80003e2:	b2ca      	uxtb	r2, r1
 80003e4:	701a      	strb	r2, [r3, #0]
 80003e6:	697b      	ldr	r3, [r7, #20]
 80003e8:	3301      	adds	r3, #1
 80003ea:	617b      	str	r3, [r7, #20]
 80003ec:	697b      	ldr	r3, [r7, #20]
 80003ee:	687a      	ldr	r2, [r7, #4]
 80003f0:	429a      	cmp	r2, r3
 80003f2:	d8ea      	bhi.n	80003ca <USART_Read+0x12>
 80003f4:	bf00      	nop
 80003f6:	bf00      	nop
 80003f8:	371c      	adds	r7, #28
 80003fa:	46bd      	mov	sp, r7
 80003fc:	bc80      	pop	{r7}
 80003fe:	4770      	bx	lr

08000400 <main>:
 8000400:	b580      	push	{r7, lr}
 8000402:	af00      	add	r7, sp, #0
 8000404:	4b2e      	ldr	r3, [pc, #184]	; (80004c0 <main+0xc0>)
 8000406:	681b      	ldr	r3, [r3, #0]
 8000408:	6b1a      	ldr	r2, [r3, #48]	; 0x30
 800040a:	4b2d      	ldr	r3, [pc, #180]	; (80004c0 <main+0xc0>)
 800040c:	681b      	ldr	r3, [r3, #0]
 800040e:	f042 0201 	orr.w	r2, r2, #1
 8000412:	631a      	str	r2, [r3, #48]	; 0x30
 8000414:	4b2b      	ldr	r3, [pc, #172]	; (80004c4 <main+0xc4>)
 8000416:	681b      	ldr	r3, [r3, #0]
 8000418:	681a      	ldr	r2, [r3, #0]
 800041a:	4b2a      	ldr	r3, [pc, #168]	; (80004c4 <main+0xc4>)
 800041c:	681b      	ldr	r3, [r3, #0]
 800041e:	f422 1270 	bic.w	r2, r2, #3932160	; 0x3c0000
 8000422:	601a      	str	r2, [r3, #0]
 8000424:	4b27      	ldr	r3, [pc, #156]	; (80004c4 <main+0xc4>)
 8000426:	681b      	ldr	r3, [r3, #0]
 8000428:	681a      	ldr	r2, [r3, #0]
 800042a:	4b26      	ldr	r3, [pc, #152]	; (80004c4 <main+0xc4>)
 800042c:	681b      	ldr	r3, [r3, #0]
 800042e:	f442 1220 	orr.w	r2, r2, #2621440	; 0x280000
 8000432:	601a      	str	r2, [r3, #0]
 8000434:	4b23      	ldr	r3, [pc, #140]	; (80004c4 <main+0xc4>)
 8000436:	681b      	ldr	r3, [r3, #0]
 8000438:	6a5a      	ldr	r2, [r3, #36]	; 0x24
 800043a:	4b22      	ldr	r3, [pc, #136]	; (80004c4 <main+0xc4>)
 800043c:	681b      	ldr	r3, [r3, #0]
 800043e:	f422 627f 	bic.w	r2, r2, #4080	; 0xff0
 8000442:	625a      	str	r2, [r3, #36]	; 0x24
 8000444:	4b1f      	ldr	r3, [pc, #124]	; (80004c4 <main+0xc4>)
 8000446:	681b      	ldr	r3, [r3, #0]
 8000448:	6a5a      	ldr	r2, [r3, #36]	; 0x24
 800044a:	4b1e      	ldr	r3, [pc, #120]	; (80004c4 <main+0xc4>)
 800044c:	681b      	ldr	r3, [r3, #0]
 800044e:	f442 62ee 	orr.w	r2, r2, #1904	; 0x770
 8000452:	625a      	str	r2, [r3, #36]	; 0x24
 8000454:	4b1b      	ldr	r3, [pc, #108]	; (80004c4 <main+0xc4>)
 8000456:	681b      	ldr	r3, [r3, #0]
 8000458:	689a      	ldr	r2, [r3, #8]
 800045a:	4b1a      	ldr	r3, [pc, #104]	; (80004c4 <main+0xc4>)
 800045c:	681b      	ldr	r3, [r3, #0]
 800045e:	f442 1270 	orr.w	r2, r2, #3932160	; 0x3c0000
 8000462:	609a      	str	r2, [r3, #8]
 8000464:	4b17      	ldr	r3, [pc, #92]	; (80004c4 <main+0xc4>)
 8000466:	681b      	ldr	r3, [r3, #0]
 8000468:	68da      	ldr	r2, [r3, #12]
 800046a:	4b16      	ldr	r3, [pc, #88]	; (80004c4 <main+0xc4>)
 800046c:	681b      	ldr	r3, [r3, #0]
 800046e:	f422 1270 	bic.w	r2, r2, #3932160	; 0x3c0000
 8000472:	60da      	str	r2, [r3, #12]
 8000474:	4b13      	ldr	r3, [pc, #76]	; (80004c4 <main+0xc4>)
 8000476:	681b      	ldr	r3, [r3, #0]
 8000478:	68da      	ldr	r2, [r3, #12]
 800047a:	4b12      	ldr	r3, [pc, #72]	; (80004c4 <main+0xc4>)
 800047c:	681b      	ldr	r3, [r3, #0]
 800047e:	f062 0205 	orn	r2, r2, #5
 8000482:	60da      	str	r2, [r3, #12]
 8000484:	4b0f      	ldr	r3, [pc, #60]	; (80004c4 <main+0xc4>)
 8000486:	681b      	ldr	r3, [r3, #0]
 8000488:	685a      	ldr	r2, [r3, #4]
 800048a:	4b0e      	ldr	r3, [pc, #56]	; (80004c4 <main+0xc4>)
 800048c:	681b      	ldr	r3, [r3, #0]
 800048e:	f422 62c0 	bic.w	r2, r2, #1536	; 0x600
 8000492:	605a      	str	r2, [r3, #4]
 8000494:	4b0a      	ldr	r3, [pc, #40]	; (80004c0 <main+0xc0>)
 8000496:	681b      	ldr	r3, [r3, #0]
 8000498:	6c5a      	ldr	r2, [r3, #68]	; 0x44
 800049a:	4b09      	ldr	r3, [pc, #36]	; (80004c0 <main+0xc0>)
 800049c:	681b      	ldr	r3, [r3, #0]
 800049e:	f042 0210 	orr.w	r2, r2, #16
 80004a2:	645a      	str	r2, [r3, #68]	; 0x44
 80004a4:	4b08      	ldr	r3, [pc, #32]	; (80004c8 <main+0xc8>)
 80004a6:	681b      	ldr	r3, [r3, #0]
 80004a8:	4618      	mov	r0, r3
 80004aa:	f7ff ff4f 	bl	800034c <USART_Init>
 80004ae:	f002 fc1d 	bl	8002cec <initialise_monitor_handles>
 80004b2:	4806      	ldr	r0, [pc, #24]	; (80004cc <main+0xcc>)
 80004b4:	f000 fa52 	bl	800095c <puts>
 80004b8:	2300      	movs	r3, #0
 80004ba:	4618      	mov	r0, r3
 80004bc:	bd80      	pop	{r7, pc}
 80004be:	bf00      	nop
 80004c0:	2000011c 	.word	0x2000011c
 80004c4:	20000120 	.word	0x20000120
 80004c8:	20000124 	.word	0x20000124
 80004cc:	080030b0 	.word	0x080030b0
	...

08000500 <strlen>:
 8000500:	f890 f000 	pld	[r0]
 8000504:	e96d 4502 	strd	r4, r5, [sp, #-8]!
 8000508:	f020 0107 	bic.w	r1, r0, #7
 800050c:	f06f 0c00 	mvn.w	ip, #0
 8000510:	f010 0407 	ands.w	r4, r0, #7
 8000514:	f891 f020 	pld	[r1, #32]
 8000518:	f040 8049 	bne.w	80005ae <strlen+0xae>
 800051c:	f04f 0400 	mov.w	r4, #0
 8000520:	f06f 0007 	mvn.w	r0, #7
 8000524:	e9d1 2300 	ldrd	r2, r3, [r1]
 8000528:	f891 f040 	pld	[r1, #64]	; 0x40
 800052c:	f100 0008 	add.w	r0, r0, #8
 8000530:	fa82 f24c 	uadd8	r2, r2, ip
 8000534:	faa4 f28c 	sel	r2, r4, ip
 8000538:	fa83 f34c 	uadd8	r3, r3, ip
 800053c:	faa2 f38c 	sel	r3, r2, ip
 8000540:	bb4b      	cbnz	r3, 8000596 <strlen+0x96>
 8000542:	e9d1 2302 	ldrd	r2, r3, [r1, #8]
 8000546:	fa82 f24c 	uadd8	r2, r2, ip
 800054a:	f100 0008 	add.w	r0, r0, #8
 800054e:	faa4 f28c 	sel	r2, r4, ip
 8000552:	fa83 f34c 	uadd8	r3, r3, ip
 8000556:	faa2 f38c 	sel	r3, r2, ip
 800055a:	b9e3      	cbnz	r3, 8000596 <strlen+0x96>
 800055c:	e9d1 2304 	ldrd	r2, r3, [r1, #16]
 8000560:	fa82 f24c 	uadd8	r2, r2, ip
 8000564:	f100 0008 	add.w	r0, r0, #8
 8000568:	faa4 f28c 	sel	r2, r4, ip
 800056c:	fa83 f34c 	uadd8	r3, r3, ip
 8000570:	faa2 f38c 	sel	r3, r2, ip
 8000574:	b97b      	cbnz	r3, 8000596 <strlen+0x96>
 8000576:	e9d1 2306 	ldrd	r2, r3, [r1, #24]
 800057a:	f101 0120 	add.w	r1, r1, #32
 800057e:	fa82 f24c 	uadd8	r2, r2, ip
 8000582:	f100 0008 	add.w	r0, r0, #8
 8000586:	faa4 f28c 	sel	r2, r4, ip
 800058a:	fa83 f34c 	uadd8	r3, r3, ip
 800058e:	faa2 f38c 	sel	r3, r2, ip
 8000592:	2b00      	cmp	r3, #0
 8000594:	d0c6      	beq.n	8000524 <strlen+0x24>
 8000596:	2a00      	cmp	r2, #0
 8000598:	bf04      	itt	eq
 800059a:	3004      	addeq	r0, #4
 800059c:	461a      	moveq	r2, r3
 800059e:	ba12      	rev	r2, r2
 80005a0:	fab2 f282 	clz	r2, r2
 80005a4:	e8fd 4502 	ldrd	r4, r5, [sp], #8
 80005a8:	eb00 00d2 	add.w	r0, r0, r2, lsr #3
 80005ac:	4770      	bx	lr
 80005ae:	e9d1 2300 	ldrd	r2, r3, [r1]
 80005b2:	f004 0503 	and.w	r5, r4, #3
 80005b6:	f1c4 0000 	rsb	r0, r4, #0
 80005ba:	ea4f 05c5 	mov.w	r5, r5, lsl #3
 80005be:	f014 0f04 	tst.w	r4, #4
 80005c2:	f891 f040 	pld	[r1, #64]	; 0x40
 80005c6:	fa0c f505 	lsl.w	r5, ip, r5
 80005ca:	ea62 0205 	orn	r2, r2, r5
 80005ce:	bf1c      	itt	ne
 80005d0:	ea63 0305 	ornne	r3, r3, r5
 80005d4:	4662      	movne	r2, ip
 80005d6:	f04f 0400 	mov.w	r4, #0
 80005da:	e7a9      	b.n	8000530 <strlen+0x30>
 80005dc:	0000      	movs	r0, r0
	...

080005e0 <memchr>:
 80005e0:	f001 01ff 	and.w	r1, r1, #255	; 0xff
 80005e4:	2a10      	cmp	r2, #16
 80005e6:	db2b      	blt.n	8000640 <memchr+0x60>
 80005e8:	f010 0f07 	tst.w	r0, #7
 80005ec:	d008      	beq.n	8000600 <memchr+0x20>
 80005ee:	f810 3b01 	ldrb.w	r3, [r0], #1
 80005f2:	3a01      	subs	r2, #1
 80005f4:	428b      	cmp	r3, r1
 80005f6:	d02d      	beq.n	8000654 <memchr+0x74>
 80005f8:	f010 0f07 	tst.w	r0, #7
 80005fc:	b342      	cbz	r2, 8000650 <memchr+0x70>
 80005fe:	d1f6      	bne.n	80005ee <memchr+0xe>
 8000600:	b4f0      	push	{r4, r5, r6, r7}
 8000602:	ea41 2101 	orr.w	r1, r1, r1, lsl #8
 8000606:	ea41 4101 	orr.w	r1, r1, r1, lsl #16
 800060a:	f022 0407 	bic.w	r4, r2, #7
 800060e:	f07f 0700 	mvns.w	r7, #0
 8000612:	2300      	movs	r3, #0
 8000614:	e8f0 5602 	ldrd	r5, r6, [r0], #8
 8000618:	3c08      	subs	r4, #8
 800061a:	ea85 0501 	eor.w	r5, r5, r1
 800061e:	ea86 0601 	eor.w	r6, r6, r1
 8000622:	fa85 f547 	uadd8	r5, r5, r7
 8000626:	faa3 f587 	sel	r5, r3, r7
 800062a:	fa86 f647 	uadd8	r6, r6, r7
 800062e:	faa5 f687 	sel	r6, r5, r7
 8000632:	b98e      	cbnz	r6, 8000658 <memchr+0x78>
 8000634:	d1ee      	bne.n	8000614 <memchr+0x34>
 8000636:	bcf0      	pop	{r4, r5, r6, r7}
 8000638:	f001 01ff 	and.w	r1, r1, #255	; 0xff
 800063c:	f002 0207 	and.w	r2, r2, #7
 8000640:	b132      	cbz	r2, 8000650 <memchr+0x70>
 8000642:	f810 3b01 	ldrb.w	r3, [r0], #1
 8000646:	3a01      	subs	r2, #1
 8000648:	ea83 0301 	eor.w	r3, r3, r1
 800064c:	b113      	cbz	r3, 8000654 <memchr+0x74>
 800064e:	d1f8      	bne.n	8000642 <memchr+0x62>
 8000650:	2000      	movs	r0, #0
 8000652:	4770      	bx	lr
 8000654:	3801      	subs	r0, #1
 8000656:	4770      	bx	lr
 8000658:	2d00      	cmp	r5, #0
 800065a:	bf06      	itte	eq
 800065c:	4635      	moveq	r5, r6
 800065e:	3803      	subeq	r0, #3
 8000660:	3807      	subne	r0, #7
 8000662:	f015 0f01 	tst.w	r5, #1
 8000666:	d107      	bne.n	8000678 <memchr+0x98>
 8000668:	3001      	adds	r0, #1
 800066a:	f415 7f80 	tst.w	r5, #256	; 0x100
 800066e:	bf02      	ittt	eq
 8000670:	3001      	addeq	r0, #1
 8000672:	f415 3fc0 	tsteq.w	r5, #98304	; 0x18000
 8000676:	3001      	addeq	r0, #1
 8000678:	bcf0      	pop	{r4, r5, r6, r7}
 800067a:	3801      	subs	r0, #1
 800067c:	4770      	bx	lr
 800067e:	bf00      	nop

08000680 <memcpy>:
 8000680:	4684      	mov	ip, r0
 8000682:	ea41 0300 	orr.w	r3, r1, r0
 8000686:	f013 0303 	ands.w	r3, r3, #3
 800068a:	d16d      	bne.n	8000768 <memcpy+0xe8>
 800068c:	3a40      	subs	r2, #64	; 0x40
 800068e:	d341      	bcc.n	8000714 <memcpy+0x94>
 8000690:	f851 3b04 	ldr.w	r3, [r1], #4
 8000694:	f840 3b04 	str.w	r3, [r0], #4
 8000698:	f851 3b04 	ldr.w	r3, [r1], #4
 800069c:	f840 3b04 	str.w	r3, [r0], #4
 80006a0:	f851 3b04 	ldr.w	r3, [r1], #4
 80006a4:	f840 3b04 	str.w	r3, [r0], #4
 80006a8:	f851 3b04 	ldr.w	r3, [r1], #4
 80006ac:	f840 3b04 	str.w	r3, [r0], #4
 80006b0:	f851 3b04 	ldr.w	r3, [r1], #4
 80006b4:	f840 3b04 	str.w	r3, [r0], #4
 80006b8:	f851 3b04 	ldr.w	r3, [r1], #4
 80006bc:	f840 3b04 	str.w	r3, [r0], #4
 80006c0:	f851 3b04 	ldr.w	r3, [r1], #4
 80006c4:	f840 3b04 	str.w	r3, [r0], #4
 80006c8:	f851 3b04 	ldr.w	r3, [r1], #4
 80006cc:	f840 3b04 	str.w	r3, [r0], #4
 80006d0:	f851 3b04 	ldr.w	r3, [r1], #4
 80006d4:	f840 3b04 	str.w	r3, [r0], #4
 80006d8:	f851 3b04 	ldr.w	r3, [r1], #4
 80006dc:	f840 3b04 	str.w	r3, [r0], #4
 80006e0:	f851 3b04 	ldr.w	r3, [r1], #4
 80006e4:	f840 3b04 	str.w	r3, [r0], #4
 80006e8:	f851 3b04 	ldr.w	r3, [r1], #4
 80006ec:	f840 3b04 	str.w	r3, [r0], #4
 80006f0:	f851 3b04 	ldr.w	r3, [r1], #4
 80006f4:	f840 3b04 	str.w	r3, [r0], #4
 80006f8:	f851 3b04 	ldr.w	r3, [r1], #4
 80006fc:	f840 3b04 	str.w	r3, [r0], #4
 8000700:	f851 3b04 	ldr.w	r3, [r1], #4
 8000704:	f840 3b04 	str.w	r3, [r0], #4
 8000708:	f851 3b04 	ldr.w	r3, [r1], #4
 800070c:	f840 3b04 	str.w	r3, [r0], #4
 8000710:	3a40      	subs	r2, #64	; 0x40
 8000712:	d2bd      	bcs.n	8000690 <memcpy+0x10>
 8000714:	3230      	adds	r2, #48	; 0x30
 8000716:	d311      	bcc.n	800073c <memcpy+0xbc>
 8000718:	f851 3b04 	ldr.w	r3, [r1], #4
 800071c:	f840 3b04 	str.w	r3, [r0], #4
 8000720:	f851 3b04 	ldr.w	r3, [r1], #4
 8000724:	f840 3b04 	str.w	r3, [r0], #4
 8000728:	f851 3b04 	ldr.w	r3, [r1], #4
 800072c:	f840 3b04 	str.w	r3, [r0], #4
 8000730:	f851 3b04 	ldr.w	r3, [r1], #4
 8000734:	f840 3b04 	str.w	r3, [r0], #4
 8000738:	3a10      	subs	r2, #16
 800073a:	d2ed      	bcs.n	8000718 <memcpy+0x98>
 800073c:	320c      	adds	r2, #12
 800073e:	d305      	bcc.n	800074c <memcpy+0xcc>
 8000740:	f851 3b04 	ldr.w	r3, [r1], #4
 8000744:	f840 3b04 	str.w	r3, [r0], #4
 8000748:	3a04      	subs	r2, #4
 800074a:	d2f9      	bcs.n	8000740 <memcpy+0xc0>
 800074c:	3204      	adds	r2, #4
 800074e:	d008      	beq.n	8000762 <memcpy+0xe2>
 8000750:	07d2      	lsls	r2, r2, #31
 8000752:	bf1c      	itt	ne
 8000754:	f811 3b01 	ldrbne.w	r3, [r1], #1
 8000758:	f800 3b01 	strbne.w	r3, [r0], #1
 800075c:	d301      	bcc.n	8000762 <memcpy+0xe2>
 800075e:	880b      	ldrh	r3, [r1, #0]
 8000760:	8003      	strh	r3, [r0, #0]
 8000762:	4660      	mov	r0, ip
 8000764:	4770      	bx	lr
 8000766:	bf00      	nop
 8000768:	2a08      	cmp	r2, #8
 800076a:	d313      	bcc.n	8000794 <memcpy+0x114>
 800076c:	078b      	lsls	r3, r1, #30
 800076e:	d08d      	beq.n	800068c <memcpy+0xc>
 8000770:	f010 0303 	ands.w	r3, r0, #3
 8000774:	d08a      	beq.n	800068c <memcpy+0xc>
 8000776:	f1c3 0304 	rsb	r3, r3, #4
 800077a:	1ad2      	subs	r2, r2, r3
 800077c:	07db      	lsls	r3, r3, #31
 800077e:	bf1c      	itt	ne
 8000780:	f811 3b01 	ldrbne.w	r3, [r1], #1
 8000784:	f800 3b01 	strbne.w	r3, [r0], #1
 8000788:	d380      	bcc.n	800068c <memcpy+0xc>
 800078a:	f831 3b02 	ldrh.w	r3, [r1], #2
 800078e:	f820 3b02 	strh.w	r3, [r0], #2
 8000792:	e77b      	b.n	800068c <memcpy+0xc>
 8000794:	3a04      	subs	r2, #4
 8000796:	d3d9      	bcc.n	800074c <memcpy+0xcc>
 8000798:	3a01      	subs	r2, #1
 800079a:	f811 3b01 	ldrb.w	r3, [r1], #1
 800079e:	f800 3b01 	strb.w	r3, [r0], #1
 80007a2:	d2f9      	bcs.n	8000798 <memcpy+0x118>
 80007a4:	780b      	ldrb	r3, [r1, #0]
 80007a6:	7003      	strb	r3, [r0, #0]
 80007a8:	784b      	ldrb	r3, [r1, #1]
 80007aa:	7043      	strb	r3, [r0, #1]
 80007ac:	788b      	ldrb	r3, [r1, #2]
 80007ae:	7083      	strb	r3, [r0, #2]
 80007b0:	4660      	mov	r0, ip
 80007b2:	4770      	bx	lr

080007b4 <exit>:
 80007b4:	b508      	push	{r3, lr}
 80007b6:	2100      	movs	r1, #0
 80007b8:	4604      	mov	r4, r0
 80007ba:	f000 f8e1 	bl	8000980 <__call_exitprocs>
 80007be:	4b04      	ldr	r3, [pc, #16]	; (80007d0 <exit+0x1c>)
 80007c0:	6818      	ldr	r0, [r3, #0]
 80007c2:	6bc3      	ldr	r3, [r0, #60]	; 0x3c
 80007c4:	b103      	cbz	r3, 80007c8 <exit+0x14>
 80007c6:	4798      	blx	r3
 80007c8:	4620      	mov	r0, r4
 80007ca:	f002 fc1d 	bl	8003008 <_exit>
 80007ce:	bf00      	nop
 80007d0:	080030e4 	.word	0x080030e4

080007d4 <__libc_init_array>:
 80007d4:	b570      	push	{r4, r5, r6, lr}
 80007d6:	4e0d      	ldr	r6, [pc, #52]	; (800080c <__libc_init_array+0x38>)
 80007d8:	4d0d      	ldr	r5, [pc, #52]	; (8000810 <__libc_init_array+0x3c>)
 80007da:	1b76      	subs	r6, r6, r5
 80007dc:	10b6      	asrs	r6, r6, #2
 80007de:	d006      	beq.n	80007ee <__libc_init_array+0x1a>
 80007e0:	2400      	movs	r4, #0
 80007e2:	f855 3b04 	ldr.w	r3, [r5], #4
 80007e6:	3401      	adds	r4, #1
 80007e8:	4798      	blx	r3
 80007ea:	42a6      	cmp	r6, r4
 80007ec:	d1f9      	bne.n	80007e2 <__libc_init_array+0xe>
 80007ee:	4e09      	ldr	r6, [pc, #36]	; (8000814 <__libc_init_array+0x40>)
 80007f0:	4d09      	ldr	r5, [pc, #36]	; (8000818 <__libc_init_array+0x44>)
 80007f2:	1b76      	subs	r6, r6, r5
 80007f4:	f002 fc3e 	bl	8003074 <_init>
 80007f8:	10b6      	asrs	r6, r6, #2
 80007fa:	d006      	beq.n	800080a <__libc_init_array+0x36>
 80007fc:	2400      	movs	r4, #0
 80007fe:	f855 3b04 	ldr.w	r3, [r5], #4
 8000802:	3401      	adds	r4, #1
 8000804:	4798      	blx	r3
 8000806:	42a6      	cmp	r6, r4
 8000808:	d1f9      	bne.n	80007fe <__libc_init_array+0x2a>
 800080a:	bd70      	pop	{r4, r5, r6, pc}
	...

0800081c <memset>:
 800081c:	0783      	lsls	r3, r0, #30
 800081e:	b530      	push	{r4, r5, lr}
 8000820:	d048      	beq.n	80008b4 <memset+0x98>
 8000822:	1e54      	subs	r4, r2, #1
 8000824:	2a00      	cmp	r2, #0
 8000826:	d03f      	beq.n	80008a8 <memset+0x8c>
 8000828:	b2ca      	uxtb	r2, r1
 800082a:	4603      	mov	r3, r0
 800082c:	e001      	b.n	8000832 <memset+0x16>
 800082e:	3c01      	subs	r4, #1
 8000830:	d33a      	bcc.n	80008a8 <memset+0x8c>
 8000832:	f803 2b01 	strb.w	r2, [r3], #1
 8000836:	079d      	lsls	r5, r3, #30
 8000838:	d1f9      	bne.n	800082e <memset+0x12>
 800083a:	2c03      	cmp	r4, #3
 800083c:	d92d      	bls.n	800089a <memset+0x7e>
 800083e:	b2cd      	uxtb	r5, r1
 8000840:	ea45 2505 	orr.w	r5, r5, r5, lsl #8
 8000844:	2c0f      	cmp	r4, #15
 8000846:	ea45 4505 	orr.w	r5, r5, r5, lsl #16
 800084a:	d936      	bls.n	80008ba <memset+0x9e>
 800084c:	f1a4 0210 	sub.w	r2, r4, #16
 8000850:	f022 0c0f 	bic.w	ip, r2, #15
 8000854:	f103 0e20 	add.w	lr, r3, #32
 8000858:	44e6      	add	lr, ip
 800085a:	ea4f 1c12 	mov.w	ip, r2, lsr #4
 800085e:	f103 0210 	add.w	r2, r3, #16
 8000862:	e942 5504 	strd	r5, r5, [r2, #-16]
 8000866:	e942 5502 	strd	r5, r5, [r2, #-8]
 800086a:	3210      	adds	r2, #16
 800086c:	4572      	cmp	r2, lr
 800086e:	d1f8      	bne.n	8000862 <memset+0x46>
 8000870:	f10c 0201 	add.w	r2, ip, #1
 8000874:	f014 0f0c 	tst.w	r4, #12
 8000878:	eb03 1202 	add.w	r2, r3, r2, lsl #4
 800087c:	f004 0c0f 	and.w	ip, r4, #15
 8000880:	d013      	beq.n	80008aa <memset+0x8e>
 8000882:	f1ac 0304 	sub.w	r3, ip, #4
 8000886:	f023 0303 	bic.w	r3, r3, #3
 800088a:	3304      	adds	r3, #4
 800088c:	4413      	add	r3, r2
 800088e:	f842 5b04 	str.w	r5, [r2], #4
 8000892:	4293      	cmp	r3, r2
 8000894:	d1fb      	bne.n	800088e <memset+0x72>
 8000896:	f00c 0403 	and.w	r4, ip, #3
 800089a:	b12c      	cbz	r4, 80008a8 <memset+0x8c>
 800089c:	b2ca      	uxtb	r2, r1
 800089e:	441c      	add	r4, r3
 80008a0:	f803 2b01 	strb.w	r2, [r3], #1
 80008a4:	429c      	cmp	r4, r3
 80008a6:	d1fb      	bne.n	80008a0 <memset+0x84>
 80008a8:	bd30      	pop	{r4, r5, pc}
 80008aa:	4664      	mov	r4, ip
 80008ac:	4613      	mov	r3, r2
 80008ae:	2c00      	cmp	r4, #0
 80008b0:	d1f4      	bne.n	800089c <memset+0x80>
 80008b2:	e7f9      	b.n	80008a8 <memset+0x8c>
 80008b4:	4603      	mov	r3, r0
 80008b6:	4614      	mov	r4, r2
 80008b8:	e7bf      	b.n	800083a <memset+0x1e>
 80008ba:	461a      	mov	r2, r3
 80008bc:	46a4      	mov	ip, r4
 80008be:	e7e0      	b.n	8000882 <memset+0x66>

080008c0 <_puts_r>:
 80008c0:	b570      	push	{r4, r5, r6, lr}
 80008c2:	4605      	mov	r5, r0
 80008c4:	b088      	sub	sp, #32
 80008c6:	4608      	mov	r0, r1
 80008c8:	460c      	mov	r4, r1
 80008ca:	f7ff fe19 	bl	8000500 <strlen>
 80008ce:	4e22      	ldr	r6, [pc, #136]	; (8000958 <_puts_r+0x98>)
 80008d0:	6baa      	ldr	r2, [r5, #56]	; 0x38
 80008d2:	9005      	str	r0, [sp, #20]
 80008d4:	2101      	movs	r1, #1
 80008d6:	1843      	adds	r3, r0, r1
 80008d8:	e9cd 6106 	strd	r6, r1, [sp, #24]
 80008dc:	a804      	add	r0, sp, #16
 80008de:	2102      	movs	r1, #2
 80008e0:	9404      	str	r4, [sp, #16]
 80008e2:	9303      	str	r3, [sp, #12]
 80008e4:	68ac      	ldr	r4, [r5, #8]
 80008e6:	9001      	str	r0, [sp, #4]
 80008e8:	9102      	str	r1, [sp, #8]
 80008ea:	b322      	cbz	r2, 8000936 <_puts_r+0x76>
 80008ec:	6e63      	ldr	r3, [r4, #100]	; 0x64
 80008ee:	f013 0f01 	tst.w	r3, #1
 80008f2:	f9b4 300c 	ldrsh.w	r3, [r4, #12]
 80008f6:	b29a      	uxth	r2, r3
 80008f8:	d101      	bne.n	80008fe <_puts_r+0x3e>
 80008fa:	0598      	lsls	r0, r3, #22
 80008fc:	d525      	bpl.n	800094a <_puts_r+0x8a>
 80008fe:	0491      	lsls	r1, r2, #18
 8000900:	d406      	bmi.n	8000910 <_puts_r+0x50>
 8000902:	6e62      	ldr	r2, [r4, #100]	; 0x64
 8000904:	f443 5300 	orr.w	r3, r3, #8192	; 0x2000
 8000908:	f422 5200 	bic.w	r2, r2, #8192	; 0x2000
 800090c:	81a3      	strh	r3, [r4, #12]
 800090e:	6662      	str	r2, [r4, #100]	; 0x64
 8000910:	4628      	mov	r0, r5
 8000912:	aa01      	add	r2, sp, #4
 8000914:	4621      	mov	r1, r4
 8000916:	f000 fa1b 	bl	8000d50 <__sfvwrite_r>
 800091a:	6e63      	ldr	r3, [r4, #100]	; 0x64
 800091c:	2800      	cmp	r0, #0
 800091e:	bf14      	ite	ne
 8000920:	f04f 35ff 	movne.w	r5, #4294967295
 8000924:	250a      	moveq	r5, #10
 8000926:	07da      	lsls	r2, r3, #31
 8000928:	d402      	bmi.n	8000930 <_puts_r+0x70>
 800092a:	89a3      	ldrh	r3, [r4, #12]
 800092c:	059b      	lsls	r3, r3, #22
 800092e:	d506      	bpl.n	800093e <_puts_r+0x7e>
 8000930:	4628      	mov	r0, r5
 8000932:	b008      	add	sp, #32
 8000934:	bd70      	pop	{r4, r5, r6, pc}
 8000936:	4628      	mov	r0, r5
 8000938:	f000 f8ce 	bl	8000ad8 <__sinit>
 800093c:	e7d6      	b.n	80008ec <_puts_r+0x2c>
 800093e:	6da0      	ldr	r0, [r4, #88]	; 0x58
 8000940:	f000 fbd0 	bl	80010e4 <__retarget_lock_release_recursive>
 8000944:	4628      	mov	r0, r5
 8000946:	b008      	add	sp, #32
 8000948:	bd70      	pop	{r4, r5, r6, pc}
 800094a:	6da0      	ldr	r0, [r4, #88]	; 0x58
 800094c:	f000 fbc2 	bl	80010d4 <__retarget_lock_acquire_recursive>
 8000950:	f9b4 300c 	ldrsh.w	r3, [r4, #12]
 8000954:	b29a      	uxth	r2, r3
 8000956:	e7d2      	b.n	80008fe <_puts_r+0x3e>
 8000958:	080030e8 	.word	0x080030e8

0800095c <puts>:
 800095c:	4b02      	ldr	r3, [pc, #8]	; (8000968 <puts+0xc>)
 800095e:	4601      	mov	r1, r0
 8000960:	6818      	ldr	r0, [r3, #0]
 8000962:	f7ff bfad 	b.w	80008c0 <_puts_r>
 8000966:	bf00      	nop
 8000968:	20000128 	.word	0x20000128

0800096c <register_fini>:
 800096c:	4b02      	ldr	r3, [pc, #8]	; (8000978 <register_fini+0xc>)
 800096e:	b113      	cbz	r3, 8000976 <register_fini+0xa>
 8000970:	4802      	ldr	r0, [pc, #8]	; (800097c <register_fini+0x10>)
 8000972:	f000 b867 	b.w	8000a44 <atexit>
 8000976:	4770      	bx	lr
 8000978:	00000000 	.word	0x00000000
 800097c:	08000d25 	.word	0x08000d25

08000980 <__call_exitprocs>:
 8000980:	e92d 4ff0 	stmdb	sp!, {r4, r5, r6, r7, r8, r9, sl, fp, lr}
 8000984:	4b2d      	ldr	r3, [pc, #180]	; (8000a3c <__call_exitprocs+0xbc>)
 8000986:	b083      	sub	sp, #12
 8000988:	4683      	mov	fp, r0
 800098a:	6818      	ldr	r0, [r3, #0]
 800098c:	f8cd b004 	str.w	fp, [sp, #4]
 8000990:	460f      	mov	r7, r1
 8000992:	f000 fb9f 	bl	80010d4 <__retarget_lock_acquire_recursive>
 8000996:	4b2a      	ldr	r3, [pc, #168]	; (8000a40 <__call_exitprocs+0xc0>)
 8000998:	f8d3 8000 	ldr.w	r8, [r3]
 800099c:	f8d8 6148 	ldr.w	r6, [r8, #328]	; 0x148
 80009a0:	b19e      	cbz	r6, 80009ca <__call_exitprocs+0x4a>
 80009a2:	f04f 0901 	mov.w	r9, #1
 80009a6:	f04f 0a00 	mov.w	sl, #0
 80009aa:	6874      	ldr	r4, [r6, #4]
 80009ac:	1e65      	subs	r5, r4, #1
 80009ae:	d40c      	bmi.n	80009ca <__call_exitprocs+0x4a>
 80009b0:	3401      	adds	r4, #1
 80009b2:	eb06 0484 	add.w	r4, r6, r4, lsl #2
 80009b6:	b17f      	cbz	r7, 80009d8 <__call_exitprocs+0x58>
 80009b8:	f8d4 3100 	ldr.w	r3, [r4, #256]	; 0x100
 80009bc:	42bb      	cmp	r3, r7
 80009be:	d00b      	beq.n	80009d8 <__call_exitprocs+0x58>
 80009c0:	3d01      	subs	r5, #1
 80009c2:	1c6b      	adds	r3, r5, #1
 80009c4:	f1a4 0404 	sub.w	r4, r4, #4
 80009c8:	d1f5      	bne.n	80009b6 <__call_exitprocs+0x36>
 80009ca:	4b1c      	ldr	r3, [pc, #112]	; (8000a3c <__call_exitprocs+0xbc>)
 80009cc:	6818      	ldr	r0, [r3, #0]
 80009ce:	b003      	add	sp, #12
 80009d0:	e8bd 4ff0 	ldmia.w	sp!, {r4, r5, r6, r7, r8, r9, sl, fp, lr}
 80009d4:	f000 bb86 	b.w	80010e4 <__retarget_lock_release_recursive>
 80009d8:	6873      	ldr	r3, [r6, #4]
 80009da:	6822      	ldr	r2, [r4, #0]
 80009dc:	3b01      	subs	r3, #1
 80009de:	42ab      	cmp	r3, r5
 80009e0:	bf0c      	ite	eq
 80009e2:	6075      	streq	r5, [r6, #4]
 80009e4:	f8c4 a000 	strne.w	sl, [r4]
 80009e8:	2a00      	cmp	r2, #0
 80009ea:	d0e9      	beq.n	80009c0 <__call_exitprocs+0x40>
 80009ec:	f8d6 0188 	ldr.w	r0, [r6, #392]	; 0x188
 80009f0:	f8d6 b004 	ldr.w	fp, [r6, #4]
 80009f4:	fa09 f105 	lsl.w	r1, r9, r5
 80009f8:	4201      	tst	r1, r0
 80009fa:	d10b      	bne.n	8000a14 <__call_exitprocs+0x94>
 80009fc:	4790      	blx	r2
 80009fe:	6872      	ldr	r2, [r6, #4]
 8000a00:	455a      	cmp	r2, fp
 8000a02:	d112      	bne.n	8000a2a <__call_exitprocs+0xaa>
 8000a04:	f8d8 3148 	ldr.w	r3, [r8, #328]	; 0x148
 8000a08:	42b3      	cmp	r3, r6
 8000a0a:	d0d9      	beq.n	80009c0 <__call_exitprocs+0x40>
 8000a0c:	461e      	mov	r6, r3
 8000a0e:	2e00      	cmp	r6, #0
 8000a10:	d1cb      	bne.n	80009aa <__call_exitprocs+0x2a>
 8000a12:	e7da      	b.n	80009ca <__call_exitprocs+0x4a>
 8000a14:	f8d6 018c 	ldr.w	r0, [r6, #396]	; 0x18c
 8000a18:	4201      	tst	r1, r0
 8000a1a:	d10b      	bne.n	8000a34 <__call_exitprocs+0xb4>
 8000a1c:	f8d4 1080 	ldr.w	r1, [r4, #128]	; 0x80
 8000a20:	9801      	ldr	r0, [sp, #4]
 8000a22:	4790      	blx	r2
 8000a24:	6872      	ldr	r2, [r6, #4]
 8000a26:	455a      	cmp	r2, fp
 8000a28:	d0ec      	beq.n	8000a04 <__call_exitprocs+0x84>
 8000a2a:	f8d8 6148 	ldr.w	r6, [r8, #328]	; 0x148
 8000a2e:	2e00      	cmp	r6, #0
 8000a30:	d1bb      	bne.n	80009aa <__call_exitprocs+0x2a>
 8000a32:	e7ca      	b.n	80009ca <__call_exitprocs+0x4a>
 8000a34:	f8d4 0080 	ldr.w	r0, [r4, #128]	; 0x80
 8000a38:	4790      	blx	r2
 8000a3a:	e7e0      	b.n	80009fe <__call_exitprocs+0x7e>
 8000a3c:	20000558 	.word	0x20000558
 8000a40:	080030e4 	.word	0x080030e4

08000a44 <atexit>:
 8000a44:	2300      	movs	r3, #0
 8000a46:	4601      	mov	r1, r0
 8000a48:	461a      	mov	r2, r3
 8000a4a:	4618      	mov	r0, r3
 8000a4c:	f001 b94a 	b.w	8001ce4 <__register_exitproc>

08000a50 <_cleanup_r>:
 8000a50:	4901      	ldr	r1, [pc, #4]	; (8000a58 <_cleanup_r+0x8>)
 8000a52:	f000 bb11 	b.w	8001078 <_fwalk_reent>
 8000a56:	bf00      	nop
 8000a58:	08001d95 	.word	0x08001d95

08000a5c <__fp_lock>:
 8000a5c:	b508      	push	{r3, lr}
 8000a5e:	6e43      	ldr	r3, [r0, #100]	; 0x64
 8000a60:	07da      	lsls	r2, r3, #31
 8000a62:	d402      	bmi.n	8000a6a <__fp_lock+0xe>
 8000a64:	8983      	ldrh	r3, [r0, #12]
 8000a66:	059b      	lsls	r3, r3, #22
 8000a68:	d501      	bpl.n	8000a6e <__fp_lock+0x12>
 8000a6a:	2000      	movs	r0, #0
 8000a6c:	bd08      	pop	{r3, pc}
 8000a6e:	6d80      	ldr	r0, [r0, #88]	; 0x58
 8000a70:	f000 fb30 	bl	80010d4 <__retarget_lock_acquire_recursive>
 8000a74:	2000      	movs	r0, #0
 8000a76:	bd08      	pop	{r3, pc}

08000a78 <__fp_unlock>:
 8000a78:	b508      	push	{r3, lr}
 8000a7a:	6e43      	ldr	r3, [r0, #100]	; 0x64
 8000a7c:	07da      	lsls	r2, r3, #31
 8000a7e:	d402      	bmi.n	8000a86 <__fp_unlock+0xe>
 8000a80:	8983      	ldrh	r3, [r0, #12]
 8000a82:	059b      	lsls	r3, r3, #22
 8000a84:	d501      	bpl.n	8000a8a <__fp_unlock+0x12>
 8000a86:	2000      	movs	r0, #0
 8000a88:	bd08      	pop	{r3, pc}
 8000a8a:	6d80      	ldr	r0, [r0, #88]	; 0x58
 8000a8c:	f000 fb2a 	bl	80010e4 <__retarget_lock_release_recursive>
 8000a90:	2000      	movs	r0, #0
 8000a92:	bd08      	pop	{r3, pc}

08000a94 <__sfmoreglue>:
 8000a94:	b570      	push	{r4, r5, r6, lr}
 8000a96:	2268      	movs	r2, #104	; 0x68
 8000a98:	1e4d      	subs	r5, r1, #1
 8000a9a:	fb02 f505 	mul.w	r5, r2, r5
 8000a9e:	460e      	mov	r6, r1
 8000aa0:	f105 0174 	add.w	r1, r5, #116	; 0x74
 8000aa4:	f000 fb20 	bl	80010e8 <_malloc_r>
 8000aa8:	4604      	mov	r4, r0
 8000aaa:	b140      	cbz	r0, 8000abe <__sfmoreglue+0x2a>
 8000aac:	2100      	movs	r1, #0
 8000aae:	300c      	adds	r0, #12
 8000ab0:	e9c4 1600 	strd	r1, r6, [r4]
 8000ab4:	60a0      	str	r0, [r4, #8]
 8000ab6:	f105 0268 	add.w	r2, r5, #104	; 0x68
 8000aba:	f7ff feaf 	bl	800081c <memset>
 8000abe:	4620      	mov	r0, r4
 8000ac0:	bd70      	pop	{r4, r5, r6, pc}
 8000ac2:	bf00      	nop

08000ac4 <_cleanup>:
 8000ac4:	4b02      	ldr	r3, [pc, #8]	; (8000ad0 <_cleanup+0xc>)
 8000ac6:	4903      	ldr	r1, [pc, #12]	; (8000ad4 <_cleanup+0x10>)
 8000ac8:	6818      	ldr	r0, [r3, #0]
 8000aca:	f000 bad5 	b.w	8001078 <_fwalk_reent>
 8000ace:	bf00      	nop
 8000ad0:	080030e4 	.word	0x080030e4
 8000ad4:	08001d95 	.word	0x08001d95

08000ad8 <__sinit>:
 8000ad8:	e92d 47f0 	stmdb	sp!, {r4, r5, r6, r7, r8, r9, sl, lr}
 8000adc:	4682      	mov	sl, r0
 8000ade:	4839      	ldr	r0, [pc, #228]	; (8000bc4 <__sinit+0xec>)
 8000ae0:	f000 faf8 	bl	80010d4 <__retarget_lock_acquire_recursive>
 8000ae4:	f8da 4038 	ldr.w	r4, [sl, #56]	; 0x38
 8000ae8:	2c00      	cmp	r4, #0
 8000aea:	d166      	bne.n	8000bba <__sinit+0xe2>
 8000aec:	f8da 5004 	ldr.w	r5, [sl, #4]
 8000af0:	4a35      	ldr	r2, [pc, #212]	; (8000bc8 <__sinit+0xf0>)
 8000af2:	f8ca 203c 	str.w	r2, [sl, #60]	; 0x3c
 8000af6:	2303      	movs	r3, #3
 8000af8:	e9ca 43b8 	strd	r4, r3, [sl, #736]	; 0x2e0
 8000afc:	f8df 90cc 	ldr.w	r9, [pc, #204]	; 8000bcc <__sinit+0xf4>
 8000b00:	f8df 80cc 	ldr.w	r8, [pc, #204]	; 8000bd0 <__sinit+0xf8>
 8000b04:	4f33      	ldr	r7, [pc, #204]	; (8000bd4 <__sinit+0xfc>)
 8000b06:	4e34      	ldr	r6, [pc, #208]	; (8000bd8 <__sinit+0x100>)
 8000b08:	2304      	movs	r3, #4
 8000b0a:	f50a 723b 	add.w	r2, sl, #748	; 0x2ec
 8000b0e:	f8ca 22e8 	str.w	r2, [sl, #744]	; 0x2e8
 8000b12:	4621      	mov	r1, r4
 8000b14:	e9c5 4302 	strd	r4, r3, [r5, #8]
 8000b18:	e9c5 4400 	strd	r4, r4, [r5]
 8000b1c:	e9c5 4404 	strd	r4, r4, [r5, #16]
 8000b20:	666c      	str	r4, [r5, #100]	; 0x64
 8000b22:	2208      	movs	r2, #8
 8000b24:	61ac      	str	r4, [r5, #24]
 8000b26:	f105 005c 	add.w	r0, r5, #92	; 0x5c
 8000b2a:	f7ff fe77 	bl	800081c <memset>
 8000b2e:	e9c5 5907 	strd	r5, r9, [r5, #28]
 8000b32:	e9c5 8709 	strd	r8, r7, [r5, #36]	; 0x24
 8000b36:	62ee      	str	r6, [r5, #44]	; 0x2c
 8000b38:	f105 0058 	add.w	r0, r5, #88	; 0x58
 8000b3c:	f000 fac2 	bl	80010c4 <__retarget_lock_init_recursive>
 8000b40:	f8da 5008 	ldr.w	r5, [sl, #8]
 8000b44:	4b25      	ldr	r3, [pc, #148]	; (8000bdc <__sinit+0x104>)
 8000b46:	60eb      	str	r3, [r5, #12]
 8000b48:	4621      	mov	r1, r4
 8000b4a:	e9c5 4400 	strd	r4, r4, [r5]
 8000b4e:	e9c5 4404 	strd	r4, r4, [r5, #16]
 8000b52:	666c      	str	r4, [r5, #100]	; 0x64
 8000b54:	60ac      	str	r4, [r5, #8]
 8000b56:	61ac      	str	r4, [r5, #24]
 8000b58:	2208      	movs	r2, #8
 8000b5a:	f105 005c 	add.w	r0, r5, #92	; 0x5c
 8000b5e:	f7ff fe5d 	bl	800081c <memset>
 8000b62:	e9c5 5907 	strd	r5, r9, [r5, #28]
 8000b66:	e9c5 8709 	strd	r8, r7, [r5, #36]	; 0x24
 8000b6a:	62ee      	str	r6, [r5, #44]	; 0x2c
 8000b6c:	f105 0058 	add.w	r0, r5, #88	; 0x58
 8000b70:	f000 faa8 	bl	80010c4 <__retarget_lock_init_recursive>
 8000b74:	f8da 500c 	ldr.w	r5, [sl, #12]
 8000b78:	4b19      	ldr	r3, [pc, #100]	; (8000be0 <__sinit+0x108>)
 8000b7a:	60eb      	str	r3, [r5, #12]
 8000b7c:	4621      	mov	r1, r4
 8000b7e:	e9c5 4400 	strd	r4, r4, [r5]
 8000b82:	e9c5 4404 	strd	r4, r4, [r5, #16]
 8000b86:	666c      	str	r4, [r5, #100]	; 0x64
 8000b88:	60ac      	str	r4, [r5, #8]
 8000b8a:	61ac      	str	r4, [r5, #24]
 8000b8c:	2208      	movs	r2, #8
 8000b8e:	f105 005c 	add.w	r0, r5, #92	; 0x5c
 8000b92:	f7ff fe43 	bl	800081c <memset>
 8000b96:	f105 0058 	add.w	r0, r5, #88	; 0x58
 8000b9a:	e9c5 5907 	strd	r5, r9, [r5, #28]
 8000b9e:	e9c5 760a 	strd	r7, r6, [r5, #40]	; 0x28
 8000ba2:	f8c5 8024 	str.w	r8, [r5, #36]	; 0x24
 8000ba6:	f000 fa8d 	bl	80010c4 <__retarget_lock_init_recursive>
 8000baa:	2301      	movs	r3, #1
 8000bac:	f8ca 3038 	str.w	r3, [sl, #56]	; 0x38
 8000bb0:	4804      	ldr	r0, [pc, #16]	; (8000bc4 <__sinit+0xec>)
 8000bb2:	e8bd 47f0 	ldmia.w	sp!, {r4, r5, r6, r7, r8, r9, sl, lr}
 8000bb6:	f000 ba95 	b.w	80010e4 <__retarget_lock_release_recursive>
 8000bba:	e8bd 47f0 	ldmia.w	sp!, {r4, r5, r6, r7, r8, r9, sl, lr}
 8000bbe:	4801      	ldr	r0, [pc, #4]	; (8000bc4 <__sinit+0xec>)
 8000bc0:	f000 ba90 	b.w	80010e4 <__retarget_lock_release_recursive>
 8000bc4:	20000a20 	.word	0x20000a20
 8000bc8:	08000a51 	.word	0x08000a51
 8000bcc:	08001b55 	.word	0x08001b55
 8000bd0:	08001b7d 	.word	0x08001b7d
 8000bd4:	08001bbd 	.word	0x08001bbd
 8000bd8:	08001bdd 	.word	0x08001bdd
 8000bdc:	00010009 	.word	0x00010009
 8000be0:	00020012 	.word	0x00020012

08000be4 <__sfp>:
 8000be4:	e92d 41f0 	stmdb	sp!, {r4, r5, r6, r7, r8, lr}
 8000be8:	4607      	mov	r7, r0
 8000bea:	482d      	ldr	r0, [pc, #180]	; (8000ca0 <__sfp+0xbc>)
 8000bec:	f000 fa72 	bl	80010d4 <__retarget_lock_acquire_recursive>
 8000bf0:	4b2c      	ldr	r3, [pc, #176]	; (8000ca4 <__sfp+0xc0>)
 8000bf2:	681e      	ldr	r6, [r3, #0]
 8000bf4:	6bb3      	ldr	r3, [r6, #56]	; 0x38
 8000bf6:	b393      	cbz	r3, 8000c5e <__sfp+0x7a>
 8000bf8:	f506 7638 	add.w	r6, r6, #736	; 0x2e0
 8000bfc:	f04f 0804 	mov.w	r8, #4
 8000c00:	e9d6 3401 	ldrd	r3, r4, [r6, #4]
 8000c04:	3b01      	subs	r3, #1
 8000c06:	d504      	bpl.n	8000c12 <__sfp+0x2e>
 8000c08:	e025      	b.n	8000c56 <__sfp+0x72>
 8000c0a:	1c5a      	adds	r2, r3, #1
 8000c0c:	f104 0468 	add.w	r4, r4, #104	; 0x68
 8000c10:	d021      	beq.n	8000c56 <__sfp+0x72>
 8000c12:	f9b4 500c 	ldrsh.w	r5, [r4, #12]
 8000c16:	3b01      	subs	r3, #1
 8000c18:	2d00      	cmp	r5, #0
 8000c1a:	d1f6      	bne.n	8000c0a <__sfp+0x26>
 8000c1c:	4b22      	ldr	r3, [pc, #136]	; (8000ca8 <__sfp+0xc4>)
 8000c1e:	60e3      	str	r3, [r4, #12]
 8000c20:	f104 0058 	add.w	r0, r4, #88	; 0x58
 8000c24:	6665      	str	r5, [r4, #100]	; 0x64
 8000c26:	f000 fa4d 	bl	80010c4 <__retarget_lock_init_recursive>
 8000c2a:	481d      	ldr	r0, [pc, #116]	; (8000ca0 <__sfp+0xbc>)
 8000c2c:	f000 fa5a 	bl	80010e4 <__retarget_lock_release_recursive>
 8000c30:	e9c4 5501 	strd	r5, r5, [r4, #4]
 8000c34:	e9c4 5504 	strd	r5, r5, [r4, #16]
 8000c38:	6025      	str	r5, [r4, #0]
 8000c3a:	61a5      	str	r5, [r4, #24]
 8000c3c:	2208      	movs	r2, #8
 8000c3e:	4629      	mov	r1, r5
 8000c40:	f104 005c 	add.w	r0, r4, #92	; 0x5c
 8000c44:	f7ff fdea 	bl	800081c <memset>
 8000c48:	e9c4 550c 	strd	r5, r5, [r4, #48]	; 0x30
 8000c4c:	e9c4 5511 	strd	r5, r5, [r4, #68]	; 0x44
 8000c50:	4620      	mov	r0, r4
 8000c52:	e8bd 81f0 	ldmia.w	sp!, {r4, r5, r6, r7, r8, pc}
 8000c56:	6835      	ldr	r5, [r6, #0]
 8000c58:	b12d      	cbz	r5, 8000c66 <__sfp+0x82>
 8000c5a:	462e      	mov	r6, r5
 8000c5c:	e7d0      	b.n	8000c00 <__sfp+0x1c>
 8000c5e:	4630      	mov	r0, r6
 8000c60:	f7ff ff3a 	bl	8000ad8 <__sinit>
 8000c64:	e7c8      	b.n	8000bf8 <__sfp+0x14>
 8000c66:	f44f 71d6 	mov.w	r1, #428	; 0x1ac
 8000c6a:	4638      	mov	r0, r7
 8000c6c:	f000 fa3c 	bl	80010e8 <_malloc_r>
 8000c70:	4604      	mov	r4, r0
 8000c72:	b168      	cbz	r0, 8000c90 <__sfp+0xac>
 8000c74:	6005      	str	r5, [r0, #0]
 8000c76:	f8c0 8004 	str.w	r8, [r0, #4]
 8000c7a:	300c      	adds	r0, #12
 8000c7c:	4629      	mov	r1, r5
 8000c7e:	60a0      	str	r0, [r4, #8]
 8000c80:	4625      	mov	r5, r4
 8000c82:	f44f 72d0 	mov.w	r2, #416	; 0x1a0
 8000c86:	f7ff fdc9 	bl	800081c <memset>
 8000c8a:	6034      	str	r4, [r6, #0]
 8000c8c:	462e      	mov	r6, r5
 8000c8e:	e7b7      	b.n	8000c00 <__sfp+0x1c>
 8000c90:	4803      	ldr	r0, [pc, #12]	; (8000ca0 <__sfp+0xbc>)
 8000c92:	6034      	str	r4, [r6, #0]
 8000c94:	f000 fa26 	bl	80010e4 <__retarget_lock_release_recursive>
 8000c98:	230c      	movs	r3, #12
 8000c9a:	603b      	str	r3, [r7, #0]
 8000c9c:	e7d8      	b.n	8000c50 <__sfp+0x6c>
 8000c9e:	bf00      	nop
 8000ca0:	20000a1c 	.word	0x20000a1c
 8000ca4:	080030e4 	.word	0x080030e4
 8000ca8:	ffff0001 	.word	0xffff0001

08000cac <__sfp_lock_acquire>:
 8000cac:	4801      	ldr	r0, [pc, #4]	; (8000cb4 <__sfp_lock_acquire+0x8>)
 8000cae:	f000 ba11 	b.w	80010d4 <__retarget_lock_acquire_recursive>
 8000cb2:	bf00      	nop
 8000cb4:	20000a1c 	.word	0x20000a1c

08000cb8 <__sfp_lock_release>:
 8000cb8:	4801      	ldr	r0, [pc, #4]	; (8000cc0 <__sfp_lock_release+0x8>)
 8000cba:	f000 ba13 	b.w	80010e4 <__retarget_lock_release_recursive>
 8000cbe:	bf00      	nop
 8000cc0:	20000a1c 	.word	0x20000a1c

08000cc4 <__sinit_lock_acquire>:
 8000cc4:	4801      	ldr	r0, [pc, #4]	; (8000ccc <__sinit_lock_acquire+0x8>)
 8000cc6:	f000 ba05 	b.w	80010d4 <__retarget_lock_acquire_recursive>
 8000cca:	bf00      	nop
 8000ccc:	20000a20 	.word	0x20000a20

08000cd0 <__sinit_lock_release>:
 8000cd0:	4801      	ldr	r0, [pc, #4]	; (8000cd8 <__sinit_lock_release+0x8>)
 8000cd2:	f000 ba07 	b.w	80010e4 <__retarget_lock_release_recursive>
 8000cd6:	bf00      	nop
 8000cd8:	20000a20 	.word	0x20000a20

08000cdc <__fp_lock_all>:
 8000cdc:	b508      	push	{r3, lr}
 8000cde:	4805      	ldr	r0, [pc, #20]	; (8000cf4 <__fp_lock_all+0x18>)
 8000ce0:	f000 f9f8 	bl	80010d4 <__retarget_lock_acquire_recursive>
 8000ce4:	4b04      	ldr	r3, [pc, #16]	; (8000cf8 <__fp_lock_all+0x1c>)
 8000ce6:	4905      	ldr	r1, [pc, #20]	; (8000cfc <__fp_lock_all+0x20>)
 8000ce8:	6818      	ldr	r0, [r3, #0]
 8000cea:	e8bd 4008 	ldmia.w	sp!, {r3, lr}
 8000cee:	f000 b9a3 	b.w	8001038 <_fwalk>
 8000cf2:	bf00      	nop
 8000cf4:	20000a1c 	.word	0x20000a1c
 8000cf8:	20000128 	.word	0x20000128
 8000cfc:	08000a5d 	.word	0x08000a5d

08000d00 <__fp_unlock_all>:
 8000d00:	b508      	push	{r3, lr}
 8000d02:	4b05      	ldr	r3, [pc, #20]	; (8000d18 <__fp_unlock_all+0x18>)
 8000d04:	4905      	ldr	r1, [pc, #20]	; (8000d1c <__fp_unlock_all+0x1c>)
 8000d06:	6818      	ldr	r0, [r3, #0]
 8000d08:	f000 f996 	bl	8001038 <_fwalk>
 8000d0c:	e8bd 4008 	ldmia.w	sp!, {r3, lr}
 8000d10:	4803      	ldr	r0, [pc, #12]	; (8000d20 <__fp_unlock_all+0x20>)
 8000d12:	f000 b9e7 	b.w	80010e4 <__retarget_lock_release_recursive>
 8000d16:	bf00      	nop
 8000d18:	20000128 	.word	0x20000128
 8000d1c:	08000a79 	.word	0x08000a79
 8000d20:	20000a1c 	.word	0x20000a1c

08000d24 <__libc_fini_array>:
 8000d24:	b538      	push	{r3, r4, r5, lr}
 8000d26:	4b08      	ldr	r3, [pc, #32]	; (8000d48 <__libc_fini_array+0x24>)
 8000d28:	4d08      	ldr	r5, [pc, #32]	; (8000d4c <__libc_fini_array+0x28>)
 8000d2a:	1b5b      	subs	r3, r3, r5
 8000d2c:	109c      	asrs	r4, r3, #2
 8000d2e:	d007      	beq.n	8000d40 <__libc_fini_array+0x1c>
 8000d30:	3b04      	subs	r3, #4
 8000d32:	441d      	add	r5, r3
 8000d34:	3c01      	subs	r4, #1
 8000d36:	f855 3904 	ldr.w	r3, [r5], #-4
 8000d3a:	4798      	blx	r3
 8000d3c:	2c00      	cmp	r4, #0
 8000d3e:	d1f9      	bne.n	8000d34 <__libc_fini_array+0x10>
 8000d40:	e8bd 4038 	ldmia.w	sp!, {r3, r4, r5, lr}
 8000d44:	f002 b99c 	b.w	8003080 <_fini>
	...

08000d50 <__sfvwrite_r>:
 8000d50:	6893      	ldr	r3, [r2, #8]
 8000d52:	2b00      	cmp	r3, #0
 8000d54:	f000 8081 	beq.w	8000e5a <__sfvwrite_r+0x10a>
 8000d58:	e92d 4ff0 	stmdb	sp!, {r4, r5, r6, r7, r8, r9, sl, fp, lr}
 8000d5c:	f9b1 300c 	ldrsh.w	r3, [r1, #12]
 8000d60:	460c      	mov	r4, r1
 8000d62:	0719      	lsls	r1, r3, #28
 8000d64:	4680      	mov	r8, r0
 8000d66:	b083      	sub	sp, #12
 8000d68:	4617      	mov	r7, r2
 8000d6a:	b298      	uxth	r0, r3
 8000d6c:	d523      	bpl.n	8000db6 <__sfvwrite_r+0x66>
 8000d6e:	6923      	ldr	r3, [r4, #16]
 8000d70:	b30b      	cbz	r3, 8000db6 <__sfvwrite_r+0x66>
 8000d72:	f010 0302 	ands.w	r3, r0, #2
 8000d76:	683d      	ldr	r5, [r7, #0]
 8000d78:	d02b      	beq.n	8000dd2 <__sfvwrite_r+0x82>
 8000d7a:	f04f 0a00 	mov.w	sl, #0
 8000d7e:	f8df b2b4 	ldr.w	fp, [pc, #692]	; 8001034 <__sfvwrite_r+0x2e4>
 8000d82:	4656      	mov	r6, sl
 8000d84:	455e      	cmp	r6, fp
 8000d86:	4633      	mov	r3, r6
 8000d88:	4652      	mov	r2, sl
 8000d8a:	bf28      	it	cs
 8000d8c:	465b      	movcs	r3, fp
 8000d8e:	4640      	mov	r0, r8
 8000d90:	2e00      	cmp	r6, #0
 8000d92:	d04f      	beq.n	8000e34 <__sfvwrite_r+0xe4>
 8000d94:	69e1      	ldr	r1, [r4, #28]
 8000d96:	f8d4 c024 	ldr.w	ip, [r4, #36]	; 0x24
 8000d9a:	47e0      	blx	ip
 8000d9c:	2800      	cmp	r0, #0
 8000d9e:	dd52      	ble.n	8000e46 <__sfvwrite_r+0xf6>
 8000da0:	68bb      	ldr	r3, [r7, #8]
 8000da2:	1a1b      	subs	r3, r3, r0
 8000da4:	4482      	add	sl, r0
 8000da6:	1a36      	subs	r6, r6, r0
 8000da8:	60bb      	str	r3, [r7, #8]
 8000daa:	2b00      	cmp	r3, #0
 8000dac:	d1ea      	bne.n	8000d84 <__sfvwrite_r+0x34>
 8000dae:	2000      	movs	r0, #0
 8000db0:	b003      	add	sp, #12
 8000db2:	e8bd 8ff0 	ldmia.w	sp!, {r4, r5, r6, r7, r8, r9, sl, fp, pc}
 8000db6:	4621      	mov	r1, r4
 8000db8:	4640      	mov	r0, r8
 8000dba:	f000 ff29 	bl	8001c10 <__swsetup_r>
 8000dbe:	2800      	cmp	r0, #0
 8000dc0:	f040 8134 	bne.w	800102c <__sfvwrite_r+0x2dc>
 8000dc4:	f9b4 300c 	ldrsh.w	r3, [r4, #12]
 8000dc8:	683d      	ldr	r5, [r7, #0]
 8000dca:	b298      	uxth	r0, r3
 8000dcc:	f010 0302 	ands.w	r3, r0, #2
 8000dd0:	d1d3      	bne.n	8000d7a <__sfvwrite_r+0x2a>
 8000dd2:	f010 0901 	ands.w	r9, r0, #1
 8000dd6:	d142      	bne.n	8000e5e <__sfvwrite_r+0x10e>
 8000dd8:	464e      	mov	r6, r9
 8000dda:	b33e      	cbz	r6, 8000e2c <__sfvwrite_r+0xdc>
 8000ddc:	0582      	lsls	r2, r0, #22
 8000dde:	f8d4 b008 	ldr.w	fp, [r4, #8]
 8000de2:	f140 8081 	bpl.w	8000ee8 <__sfvwrite_r+0x198>
 8000de6:	45b3      	cmp	fp, r6
 8000de8:	465a      	mov	r2, fp
 8000dea:	f200 80b1 	bhi.w	8000f50 <__sfvwrite_r+0x200>
 8000dee:	f410 6f90 	tst.w	r0, #1152	; 0x480
 8000df2:	f040 80be 	bne.w	8000f72 <__sfvwrite_r+0x222>
 8000df6:	6820      	ldr	r0, [r4, #0]
 8000df8:	9201      	str	r2, [sp, #4]
 8000dfa:	4649      	mov	r1, r9
 8000dfc:	f000 fc24 	bl	8001648 <memmove>
 8000e00:	68a3      	ldr	r3, [r4, #8]
 8000e02:	6821      	ldr	r1, [r4, #0]
 8000e04:	9a01      	ldr	r2, [sp, #4]
 8000e06:	eba3 030b 	sub.w	r3, r3, fp
 8000e0a:	440a      	add	r2, r1
 8000e0c:	46b2      	mov	sl, r6
 8000e0e:	60a3      	str	r3, [r4, #8]
 8000e10:	6022      	str	r2, [r4, #0]
 8000e12:	2600      	movs	r6, #0
 8000e14:	68b8      	ldr	r0, [r7, #8]
 8000e16:	eba0 000a 	sub.w	r0, r0, sl
 8000e1a:	44d1      	add	r9, sl
 8000e1c:	60b8      	str	r0, [r7, #8]
 8000e1e:	2800      	cmp	r0, #0
 8000e20:	d0c5      	beq.n	8000dae <__sfvwrite_r+0x5e>
 8000e22:	f9b4 000c 	ldrsh.w	r0, [r4, #12]
 8000e26:	b280      	uxth	r0, r0
 8000e28:	2e00      	cmp	r6, #0
 8000e2a:	d1d7      	bne.n	8000ddc <__sfvwrite_r+0x8c>
 8000e2c:	e9d5 9600 	ldrd	r9, r6, [r5]
 8000e30:	3508      	adds	r5, #8
 8000e32:	e7d2      	b.n	8000dda <__sfvwrite_r+0x8a>
 8000e34:	e9d5 a600 	ldrd	sl, r6, [r5]
 8000e38:	3508      	adds	r5, #8
 8000e3a:	e7a3      	b.n	8000d84 <__sfvwrite_r+0x34>
 8000e3c:	4621      	mov	r1, r4
 8000e3e:	4640      	mov	r0, r8
 8000e40:	f001 f8a6 	bl	8001f90 <_fflush_r>
 8000e44:	b380      	cbz	r0, 8000ea8 <__sfvwrite_r+0x158>
 8000e46:	f9b4 300c 	ldrsh.w	r3, [r4, #12]
 8000e4a:	f043 0340 	orr.w	r3, r3, #64	; 0x40
 8000e4e:	f04f 30ff 	mov.w	r0, #4294967295
 8000e52:	81a3      	strh	r3, [r4, #12]
 8000e54:	b003      	add	sp, #12
 8000e56:	e8bd 8ff0 	ldmia.w	sp!, {r4, r5, r6, r7, r8, r9, sl, fp, pc}
 8000e5a:	2000      	movs	r0, #0
 8000e5c:	4770      	bx	lr
 8000e5e:	461e      	mov	r6, r3
 8000e60:	46aa      	mov	sl, r5
 8000e62:	4699      	mov	r9, r3
 8000e64:	4618      	mov	r0, r3
 8000e66:	461d      	mov	r5, r3
 8000e68:	b356      	cbz	r6, 8000ec0 <__sfvwrite_r+0x170>
 8000e6a:	b388      	cbz	r0, 8000ed0 <__sfvwrite_r+0x180>
 8000e6c:	464a      	mov	r2, r9
 8000e6e:	e9d4 1304 	ldrd	r1, r3, [r4, #16]
 8000e72:	6820      	ldr	r0, [r4, #0]
 8000e74:	42b2      	cmp	r2, r6
 8000e76:	bf28      	it	cs
 8000e78:	4632      	movcs	r2, r6
 8000e7a:	4288      	cmp	r0, r1
 8000e7c:	d905      	bls.n	8000e8a <__sfvwrite_r+0x13a>
 8000e7e:	68a1      	ldr	r1, [r4, #8]
 8000e80:	eb03 0b01 	add.w	fp, r3, r1
 8000e84:	455a      	cmp	r2, fp
 8000e86:	f300 80a7 	bgt.w	8000fd8 <__sfvwrite_r+0x288>
 8000e8a:	4293      	cmp	r3, r2
 8000e8c:	dc64      	bgt.n	8000f58 <__sfvwrite_r+0x208>
 8000e8e:	69e1      	ldr	r1, [r4, #28]
 8000e90:	f8d4 c024 	ldr.w	ip, [r4, #36]	; 0x24
 8000e94:	462a      	mov	r2, r5
 8000e96:	4640      	mov	r0, r8
 8000e98:	47e0      	blx	ip
 8000e9a:	f1b0 0b00 	subs.w	fp, r0, #0
 8000e9e:	ddd2      	ble.n	8000e46 <__sfvwrite_r+0xf6>
 8000ea0:	ebb9 090b 	subs.w	r9, r9, fp
 8000ea4:	d0ca      	beq.n	8000e3c <__sfvwrite_r+0xec>
 8000ea6:	2001      	movs	r0, #1
 8000ea8:	68bb      	ldr	r3, [r7, #8]
 8000eaa:	eba3 030b 	sub.w	r3, r3, fp
 8000eae:	445d      	add	r5, fp
 8000eb0:	eba6 060b 	sub.w	r6, r6, fp
 8000eb4:	60bb      	str	r3, [r7, #8]
 8000eb6:	2b00      	cmp	r3, #0
 8000eb8:	f43f af79 	beq.w	8000dae <__sfvwrite_r+0x5e>
 8000ebc:	2e00      	cmp	r6, #0
 8000ebe:	d1d4      	bne.n	8000e6a <__sfvwrite_r+0x11a>
 8000ec0:	f10a 0308 	add.w	r3, sl, #8
 8000ec4:	e953 5602 	ldrd	r5, r6, [r3, #-8]
 8000ec8:	469a      	mov	sl, r3
 8000eca:	3308      	adds	r3, #8
 8000ecc:	2e00      	cmp	r6, #0
 8000ece:	d0f9      	beq.n	8000ec4 <__sfvwrite_r+0x174>
 8000ed0:	4632      	mov	r2, r6
 8000ed2:	210a      	movs	r1, #10
 8000ed4:	4628      	mov	r0, r5
 8000ed6:	f7ff fb83 	bl	80005e0 <memchr>
 8000eda:	2800      	cmp	r0, #0
 8000edc:	f000 809d 	beq.w	800101a <__sfvwrite_r+0x2ca>
 8000ee0:	3001      	adds	r0, #1
 8000ee2:	eba0 0905 	sub.w	r9, r0, r5
 8000ee6:	e7c1      	b.n	8000e6c <__sfvwrite_r+0x11c>
 8000ee8:	6820      	ldr	r0, [r4, #0]
 8000eea:	6923      	ldr	r3, [r4, #16]
 8000eec:	4298      	cmp	r0, r3
 8000eee:	d817      	bhi.n	8000f20 <__sfvwrite_r+0x1d0>
 8000ef0:	6963      	ldr	r3, [r4, #20]
 8000ef2:	42b3      	cmp	r3, r6
 8000ef4:	d814      	bhi.n	8000f20 <__sfvwrite_r+0x1d0>
 8000ef6:	f06f 4200 	mvn.w	r2, #2147483648	; 0x80000000
 8000efa:	42b2      	cmp	r2, r6
 8000efc:	bf28      	it	cs
 8000efe:	4632      	movcs	r2, r6
 8000f00:	69e1      	ldr	r1, [r4, #28]
 8000f02:	fb92 f2f3 	sdiv	r2, r2, r3
 8000f06:	f8d4 c024 	ldr.w	ip, [r4, #36]	; 0x24
 8000f0a:	fb02 f303 	mul.w	r3, r2, r3
 8000f0e:	4640      	mov	r0, r8
 8000f10:	464a      	mov	r2, r9
 8000f12:	47e0      	blx	ip
 8000f14:	f1b0 0a00 	subs.w	sl, r0, #0
 8000f18:	dd95      	ble.n	8000e46 <__sfvwrite_r+0xf6>
 8000f1a:	eba6 060a 	sub.w	r6, r6, sl
 8000f1e:	e779      	b.n	8000e14 <__sfvwrite_r+0xc4>
 8000f20:	45b3      	cmp	fp, r6
 8000f22:	46da      	mov	sl, fp
 8000f24:	bf28      	it	cs
 8000f26:	46b2      	movcs	sl, r6
 8000f28:	4652      	mov	r2, sl
 8000f2a:	4649      	mov	r1, r9
 8000f2c:	f000 fb8c 	bl	8001648 <memmove>
 8000f30:	68a3      	ldr	r3, [r4, #8]
 8000f32:	6822      	ldr	r2, [r4, #0]
 8000f34:	eba3 030a 	sub.w	r3, r3, sl
 8000f38:	4452      	add	r2, sl
 8000f3a:	60a3      	str	r3, [r4, #8]
 8000f3c:	6022      	str	r2, [r4, #0]
 8000f3e:	2b00      	cmp	r3, #0
 8000f40:	d1eb      	bne.n	8000f1a <__sfvwrite_r+0x1ca>
 8000f42:	4621      	mov	r1, r4
 8000f44:	4640      	mov	r0, r8
 8000f46:	f001 f823 	bl	8001f90 <_fflush_r>
 8000f4a:	2800      	cmp	r0, #0
 8000f4c:	d0e5      	beq.n	8000f1a <__sfvwrite_r+0x1ca>
 8000f4e:	e77a      	b.n	8000e46 <__sfvwrite_r+0xf6>
 8000f50:	6820      	ldr	r0, [r4, #0]
 8000f52:	46b3      	mov	fp, r6
 8000f54:	4632      	mov	r2, r6
 8000f56:	e74f      	b.n	8000df8 <__sfvwrite_r+0xa8>
 8000f58:	4629      	mov	r1, r5
 8000f5a:	9201      	str	r2, [sp, #4]
 8000f5c:	f000 fb74 	bl	8001648 <memmove>
 8000f60:	9a01      	ldr	r2, [sp, #4]
 8000f62:	68a3      	ldr	r3, [r4, #8]
 8000f64:	1a9b      	subs	r3, r3, r2
 8000f66:	60a3      	str	r3, [r4, #8]
 8000f68:	6823      	ldr	r3, [r4, #0]
 8000f6a:	4413      	add	r3, r2
 8000f6c:	6023      	str	r3, [r4, #0]
 8000f6e:	4693      	mov	fp, r2
 8000f70:	e796      	b.n	8000ea0 <__sfvwrite_r+0x150>
 8000f72:	6823      	ldr	r3, [r4, #0]
 8000f74:	6921      	ldr	r1, [r4, #16]
 8000f76:	eba3 0b01 	sub.w	fp, r3, r1
 8000f7a:	6963      	ldr	r3, [r4, #20]
 8000f7c:	eb03 0a43 	add.w	sl, r3, r3, lsl #1
 8000f80:	eb0a 7ada 	add.w	sl, sl, sl, lsr #31
 8000f84:	f10b 0301 	add.w	r3, fp, #1
 8000f88:	ea4f 0a6a 	mov.w	sl, sl, asr #1
 8000f8c:	4433      	add	r3, r6
 8000f8e:	4553      	cmp	r3, sl
 8000f90:	4652      	mov	r2, sl
 8000f92:	bf84      	itt	hi
 8000f94:	469a      	movhi	sl, r3
 8000f96:	4652      	movhi	r2, sl
 8000f98:	0543      	lsls	r3, r0, #21
 8000f9a:	d52c      	bpl.n	8000ff6 <__sfvwrite_r+0x2a6>
 8000f9c:	4611      	mov	r1, r2
 8000f9e:	4640      	mov	r0, r8
 8000fa0:	f000 f8a2 	bl	80010e8 <_malloc_r>
 8000fa4:	2800      	cmp	r0, #0
 8000fa6:	d03b      	beq.n	8001020 <__sfvwrite_r+0x2d0>
 8000fa8:	465a      	mov	r2, fp
 8000faa:	6921      	ldr	r1, [r4, #16]
 8000fac:	9001      	str	r0, [sp, #4]
 8000fae:	f7ff fb67 	bl	8000680 <memcpy>
 8000fb2:	89a2      	ldrh	r2, [r4, #12]
 8000fb4:	9b01      	ldr	r3, [sp, #4]
 8000fb6:	f422 6290 	bic.w	r2, r2, #1152	; 0x480
 8000fba:	f042 0280 	orr.w	r2, r2, #128	; 0x80
 8000fbe:	81a2      	strh	r2, [r4, #12]
 8000fc0:	eb03 000b 	add.w	r0, r3, fp
 8000fc4:	6123      	str	r3, [r4, #16]
 8000fc6:	ebaa 030b 	sub.w	r3, sl, fp
 8000fca:	f8c4 a014 	str.w	sl, [r4, #20]
 8000fce:	60a3      	str	r3, [r4, #8]
 8000fd0:	6020      	str	r0, [r4, #0]
 8000fd2:	46b3      	mov	fp, r6
 8000fd4:	4632      	mov	r2, r6
 8000fd6:	e70f      	b.n	8000df8 <__sfvwrite_r+0xa8>
 8000fd8:	4629      	mov	r1, r5
 8000fda:	465a      	mov	r2, fp
 8000fdc:	f000 fb34 	bl	8001648 <memmove>
 8000fe0:	6823      	ldr	r3, [r4, #0]
 8000fe2:	445b      	add	r3, fp
 8000fe4:	6023      	str	r3, [r4, #0]
 8000fe6:	4621      	mov	r1, r4
 8000fe8:	4640      	mov	r0, r8
 8000fea:	f000 ffd1 	bl	8001f90 <_fflush_r>
 8000fee:	2800      	cmp	r0, #0
 8000ff0:	f43f af56 	beq.w	8000ea0 <__sfvwrite_r+0x150>
 8000ff4:	e727      	b.n	8000e46 <__sfvwrite_r+0xf6>
 8000ff6:	4640      	mov	r0, r8
 8000ff8:	f000 fbae 	bl	8001758 <_realloc_r>
 8000ffc:	4603      	mov	r3, r0
 8000ffe:	2800      	cmp	r0, #0
 8001000:	d1de      	bne.n	8000fc0 <__sfvwrite_r+0x270>
 8001002:	6921      	ldr	r1, [r4, #16]
 8001004:	4640      	mov	r0, r8
 8001006:	f001 f87b 	bl	8002100 <_free_r>
 800100a:	f9b4 300c 	ldrsh.w	r3, [r4, #12]
 800100e:	220c      	movs	r2, #12
 8001010:	f023 0380 	bic.w	r3, r3, #128	; 0x80
 8001014:	f8c8 2000 	str.w	r2, [r8]
 8001018:	e717      	b.n	8000e4a <__sfvwrite_r+0xfa>
 800101a:	1c72      	adds	r2, r6, #1
 800101c:	4691      	mov	r9, r2
 800101e:	e726      	b.n	8000e6e <__sfvwrite_r+0x11e>
 8001020:	220c      	movs	r2, #12
 8001022:	f9b4 300c 	ldrsh.w	r3, [r4, #12]
 8001026:	f8c8 2000 	str.w	r2, [r8]
 800102a:	e70e      	b.n	8000e4a <__sfvwrite_r+0xfa>
 800102c:	f04f 30ff 	mov.w	r0, #4294967295
 8001030:	e6be      	b.n	8000db0 <__sfvwrite_r+0x60>
 8001032:	bf00      	nop
 8001034:	7ffffc00 	.word	0x7ffffc00

08001038 <_fwalk>:
 8001038:	e92d 41f0 	stmdb	sp!, {r4, r5, r6, r7, r8, lr}
 800103c:	4688      	mov	r8, r1
 800103e:	f500 7738 	add.w	r7, r0, #736	; 0x2e0
 8001042:	2600      	movs	r6, #0
 8001044:	e9d7 5401 	ldrd	r5, r4, [r7, #4]
 8001048:	3d01      	subs	r5, #1
 800104a:	d40f      	bmi.n	800106c <_fwalk+0x34>
 800104c:	89a3      	ldrh	r3, [r4, #12]
 800104e:	2b01      	cmp	r3, #1
 8001050:	f105 35ff 	add.w	r5, r5, #4294967295
 8001054:	d906      	bls.n	8001064 <_fwalk+0x2c>
 8001056:	f9b4 300e 	ldrsh.w	r3, [r4, #14]
 800105a:	3301      	adds	r3, #1
 800105c:	4620      	mov	r0, r4
 800105e:	d001      	beq.n	8001064 <_fwalk+0x2c>
 8001060:	47c0      	blx	r8
 8001062:	4306      	orrs	r6, r0
 8001064:	1c6b      	adds	r3, r5, #1
 8001066:	f104 0468 	add.w	r4, r4, #104	; 0x68
 800106a:	d1ef      	bne.n	800104c <_fwalk+0x14>
 800106c:	683f      	ldr	r7, [r7, #0]
 800106e:	2f00      	cmp	r7, #0
 8001070:	d1e8      	bne.n	8001044 <_fwalk+0xc>
 8001072:	4630      	mov	r0, r6
 8001074:	e8bd 81f0 	ldmia.w	sp!, {r4, r5, r6, r7, r8, pc}

08001078 <_fwalk_reent>:
 8001078:	e92d 43f8 	stmdb	sp!, {r3, r4, r5, r6, r7, r8, r9, lr}
 800107c:	4607      	mov	r7, r0
 800107e:	4688      	mov	r8, r1
 8001080:	f500 7638 	add.w	r6, r0, #736	; 0x2e0
 8001084:	f04f 0900 	mov.w	r9, #0
 8001088:	e9d6 5401 	ldrd	r5, r4, [r6, #4]
 800108c:	3d01      	subs	r5, #1
 800108e:	d411      	bmi.n	80010b4 <_fwalk_reent+0x3c>
 8001090:	89a3      	ldrh	r3, [r4, #12]
 8001092:	2b01      	cmp	r3, #1
 8001094:	f105 35ff 	add.w	r5, r5, #4294967295
 8001098:	d908      	bls.n	80010ac <_fwalk_reent+0x34>
 800109a:	f9b4 300e 	ldrsh.w	r3, [r4, #14]
 800109e:	3301      	adds	r3, #1
 80010a0:	4621      	mov	r1, r4
 80010a2:	d003      	beq.n	80010ac <_fwalk_reent+0x34>
 80010a4:	4638      	mov	r0, r7
 80010a6:	47c0      	blx	r8
 80010a8:	ea49 0900 	orr.w	r9, r9, r0
 80010ac:	1c6b      	adds	r3, r5, #1
 80010ae:	f104 0468 	add.w	r4, r4, #104	; 0x68
 80010b2:	d1ed      	bne.n	8001090 <_fwalk_reent+0x18>
 80010b4:	6836      	ldr	r6, [r6, #0]
 80010b6:	2e00      	cmp	r6, #0
 80010b8:	d1e6      	bne.n	8001088 <_fwalk_reent+0x10>
 80010ba:	4648      	mov	r0, r9
 80010bc:	e8bd 83f8 	ldmia.w	sp!, {r3, r4, r5, r6, r7, r8, r9, pc}

080010c0 <__retarget_lock_init>:
 80010c0:	4770      	bx	lr
 80010c2:	bf00      	nop

080010c4 <__retarget_lock_init_recursive>:
 80010c4:	4770      	bx	lr
 80010c6:	bf00      	nop

080010c8 <__retarget_lock_close>:
 80010c8:	4770      	bx	lr
 80010ca:	bf00      	nop

080010cc <__retarget_lock_close_recursive>:
 80010cc:	4770      	bx	lr
 80010ce:	bf00      	nop

080010d0 <__retarget_lock_acquire>:
 80010d0:	4770      	bx	lr
 80010d2:	bf00      	nop

080010d4 <__retarget_lock_acquire_recursive>:
 80010d4:	4770      	bx	lr
 80010d6:	bf00      	nop

080010d8 <__retarget_lock_try_acquire>:
 80010d8:	2001      	movs	r0, #1
 80010da:	4770      	bx	lr

080010dc <__retarget_lock_try_acquire_recursive>:
 80010dc:	2001      	movs	r0, #1
 80010de:	4770      	bx	lr

080010e0 <__retarget_lock_release>:
 80010e0:	4770      	bx	lr
 80010e2:	bf00      	nop

080010e4 <__retarget_lock_release_recursive>:
 80010e4:	4770      	bx	lr
 80010e6:	bf00      	nop

080010e8 <_malloc_r>:
 80010e8:	e92d 4ff0 	stmdb	sp!, {r4, r5, r6, r7, r8, r9, sl, fp, lr}
 80010ec:	f101 060b 	add.w	r6, r1, #11
 80010f0:	2e16      	cmp	r6, #22
 80010f2:	b083      	sub	sp, #12
 80010f4:	4604      	mov	r4, r0
 80010f6:	d824      	bhi.n	8001142 <_malloc_r+0x5a>
 80010f8:	2910      	cmp	r1, #16
 80010fa:	f200 80ba 	bhi.w	8001272 <_malloc_r+0x18a>
 80010fe:	f000 fb1f 	bl	8001740 <__malloc_lock>
 8001102:	2610      	movs	r6, #16
 8001104:	2218      	movs	r2, #24
 8001106:	2002      	movs	r0, #2
 8001108:	4fb5      	ldr	r7, [pc, #724]	; (80013e0 <_malloc_r+0x2f8>)
 800110a:	443a      	add	r2, r7
 800110c:	f1a2 0108 	sub.w	r1, r2, #8
 8001110:	6853      	ldr	r3, [r2, #4]
 8001112:	428b      	cmp	r3, r1
 8001114:	f000 80ba 	beq.w	800128c <_malloc_r+0x1a4>
 8001118:	685a      	ldr	r2, [r3, #4]
 800111a:	68d9      	ldr	r1, [r3, #12]
 800111c:	f022 0203 	bic.w	r2, r2, #3
 8001120:	441a      	add	r2, r3
 8001122:	689d      	ldr	r5, [r3, #8]
 8001124:	60e9      	str	r1, [r5, #12]
 8001126:	608d      	str	r5, [r1, #8]
 8001128:	6851      	ldr	r1, [r2, #4]
 800112a:	f041 0101 	orr.w	r1, r1, #1
 800112e:	4620      	mov	r0, r4
 8001130:	6051      	str	r1, [r2, #4]
 8001132:	f103 0508 	add.w	r5, r3, #8
 8001136:	f000 fb09 	bl	800174c <__malloc_unlock>
 800113a:	4628      	mov	r0, r5
 800113c:	b003      	add	sp, #12
 800113e:	e8bd 8ff0 	ldmia.w	sp!, {r4, r5, r6, r7, r8, r9, sl, fp, pc}
 8001142:	f036 0607 	bics.w	r6, r6, #7
 8001146:	f100 8094 	bmi.w	8001272 <_malloc_r+0x18a>
 800114a:	42b1      	cmp	r1, r6
 800114c:	f200 8091 	bhi.w	8001272 <_malloc_r+0x18a>
 8001150:	f000 faf6 	bl	8001740 <__malloc_lock>
 8001154:	f5b6 7ffc 	cmp.w	r6, #504	; 0x1f8
 8001158:	f0c0 819a 	bcc.w	8001490 <_malloc_r+0x3a8>
 800115c:	0a73      	lsrs	r3, r6, #9
 800115e:	f000 808f 	beq.w	8001280 <_malloc_r+0x198>
 8001162:	2b04      	cmp	r3, #4
 8001164:	f200 816f 	bhi.w	8001446 <_malloc_r+0x35e>
 8001168:	09b3      	lsrs	r3, r6, #6
 800116a:	f103 0039 	add.w	r0, r3, #57	; 0x39
 800116e:	f103 0c38 	add.w	ip, r3, #56	; 0x38
 8001172:	00c3      	lsls	r3, r0, #3
 8001174:	4f9a      	ldr	r7, [pc, #616]	; (80013e0 <_malloc_r+0x2f8>)
 8001176:	443b      	add	r3, r7
 8001178:	f1a3 0508 	sub.w	r5, r3, #8
 800117c:	685b      	ldr	r3, [r3, #4]
 800117e:	429d      	cmp	r5, r3
 8001180:	d106      	bne.n	8001190 <_malloc_r+0xa8>
 8001182:	e00c      	b.n	800119e <_malloc_r+0xb6>
 8001184:	2900      	cmp	r1, #0
 8001186:	f280 8127 	bge.w	80013d8 <_malloc_r+0x2f0>
 800118a:	68db      	ldr	r3, [r3, #12]
 800118c:	429d      	cmp	r5, r3
 800118e:	d006      	beq.n	800119e <_malloc_r+0xb6>
 8001190:	685a      	ldr	r2, [r3, #4]
 8001192:	f022 0203 	bic.w	r2, r2, #3
 8001196:	1b91      	subs	r1, r2, r6
 8001198:	290f      	cmp	r1, #15
 800119a:	ddf3      	ble.n	8001184 <_malloc_r+0x9c>
 800119c:	4660      	mov	r0, ip
 800119e:	693d      	ldr	r5, [r7, #16]
 80011a0:	f8df c240 	ldr.w	ip, [pc, #576]	; 80013e4 <_malloc_r+0x2fc>
 80011a4:	4565      	cmp	r5, ip
 80011a6:	d07c      	beq.n	80012a2 <_malloc_r+0x1ba>
 80011a8:	686a      	ldr	r2, [r5, #4]
 80011aa:	f022 0203 	bic.w	r2, r2, #3
 80011ae:	1b93      	subs	r3, r2, r6
 80011b0:	2b0f      	cmp	r3, #15
 80011b2:	f300 817b 	bgt.w	80014ac <_malloc_r+0x3c4>
 80011b6:	2b00      	cmp	r3, #0
 80011b8:	e9c7 cc04 	strd	ip, ip, [r7, #16]
 80011bc:	f280 816c 	bge.w	8001498 <_malloc_r+0x3b0>
 80011c0:	f5b2 7f00 	cmp.w	r2, #512	; 0x200
 80011c4:	f080 811a 	bcs.w	80013fc <_malloc_r+0x314>
 80011c8:	08d3      	lsrs	r3, r2, #3
 80011ca:	6879      	ldr	r1, [r7, #4]
 80011cc:	3301      	adds	r3, #1
 80011ce:	ea4f 1e52 	mov.w	lr, r2, lsr #5
 80011d2:	2201      	movs	r2, #1
 80011d4:	fa02 f20e 	lsl.w	r2, r2, lr
 80011d8:	430a      	orrs	r2, r1
 80011da:	f857 e033 	ldr.w	lr, [r7, r3, lsl #3]
 80011de:	f8c5 e008 	str.w	lr, [r5, #8]
 80011e2:	eb07 01c3 	add.w	r1, r7, r3, lsl #3
 80011e6:	3908      	subs	r1, #8
 80011e8:	60e9      	str	r1, [r5, #12]
 80011ea:	607a      	str	r2, [r7, #4]
 80011ec:	f847 5033 	str.w	r5, [r7, r3, lsl #3]
 80011f0:	f8ce 500c 	str.w	r5, [lr, #12]
 80011f4:	1083      	asrs	r3, r0, #2
 80011f6:	2101      	movs	r1, #1
 80011f8:	4099      	lsls	r1, r3
 80011fa:	4291      	cmp	r1, r2
 80011fc:	d857      	bhi.n	80012ae <_malloc_r+0x1c6>
 80011fe:	4211      	tst	r1, r2
 8001200:	d106      	bne.n	8001210 <_malloc_r+0x128>
 8001202:	f020 0003 	bic.w	r0, r0, #3
 8001206:	0049      	lsls	r1, r1, #1
 8001208:	4211      	tst	r1, r2
 800120a:	f100 0004 	add.w	r0, r0, #4
 800120e:	d0fa      	beq.n	8001206 <_malloc_r+0x11e>
 8001210:	eb07 09c0 	add.w	r9, r7, r0, lsl #3
 8001214:	464d      	mov	r5, r9
 8001216:	4686      	mov	lr, r0
 8001218:	f8d5 800c 	ldr.w	r8, [r5, #12]
 800121c:	4545      	cmp	r5, r8
 800121e:	d108      	bne.n	8001232 <_malloc_r+0x14a>
 8001220:	e11d      	b.n	800145e <_malloc_r+0x376>
 8001222:	2b00      	cmp	r3, #0
 8001224:	f280 8124 	bge.w	8001470 <_malloc_r+0x388>
 8001228:	f8d8 800c 	ldr.w	r8, [r8, #12]
 800122c:	4545      	cmp	r5, r8
 800122e:	f000 8116 	beq.w	800145e <_malloc_r+0x376>
 8001232:	f8d8 2004 	ldr.w	r2, [r8, #4]
 8001236:	f022 0203 	bic.w	r2, r2, #3
 800123a:	1b93      	subs	r3, r2, r6
 800123c:	2b0f      	cmp	r3, #15
 800123e:	ddf0      	ble.n	8001222 <_malloc_r+0x13a>
 8001240:	4620      	mov	r0, r4
 8001242:	e9d8 5402 	ldrd	r5, r4, [r8, #8]
 8001246:	eb08 0106 	add.w	r1, r8, r6
 800124a:	f046 0601 	orr.w	r6, r6, #1
 800124e:	f8c8 6004 	str.w	r6, [r8, #4]
 8001252:	60ec      	str	r4, [r5, #12]
 8001254:	60a5      	str	r5, [r4, #8]
 8001256:	f043 0401 	orr.w	r4, r3, #1
 800125a:	e9c7 1104 	strd	r1, r1, [r7, #16]
 800125e:	e9c1 cc02 	strd	ip, ip, [r1, #8]
 8001262:	604c      	str	r4, [r1, #4]
 8001264:	f848 3002 	str.w	r3, [r8, r2]
 8001268:	f000 fa70 	bl	800174c <__malloc_unlock>
 800126c:	f108 0508 	add.w	r5, r8, #8
 8001270:	e002      	b.n	8001278 <_malloc_r+0x190>
 8001272:	230c      	movs	r3, #12
 8001274:	6023      	str	r3, [r4, #0]
 8001276:	2500      	movs	r5, #0
 8001278:	4628      	mov	r0, r5
 800127a:	b003      	add	sp, #12
 800127c:	e8bd 8ff0 	ldmia.w	sp!, {r4, r5, r6, r7, r8, r9, sl, fp, pc}
 8001280:	f44f 7300 	mov.w	r3, #512	; 0x200
 8001284:	2040      	movs	r0, #64	; 0x40
 8001286:	f04f 0c3f 	mov.w	ip, #63	; 0x3f
 800128a:	e773      	b.n	8001174 <_malloc_r+0x8c>
 800128c:	68d3      	ldr	r3, [r2, #12]
 800128e:	429a      	cmp	r2, r3
 8001290:	bf08      	it	eq
 8001292:	3002      	addeq	r0, #2
 8001294:	f47f af40 	bne.w	8001118 <_malloc_r+0x30>
 8001298:	693d      	ldr	r5, [r7, #16]
 800129a:	f8df c148 	ldr.w	ip, [pc, #328]	; 80013e4 <_malloc_r+0x2fc>
 800129e:	4565      	cmp	r5, ip
 80012a0:	d182      	bne.n	80011a8 <_malloc_r+0xc0>
 80012a2:	687a      	ldr	r2, [r7, #4]
 80012a4:	1083      	asrs	r3, r0, #2
 80012a6:	2101      	movs	r1, #1
 80012a8:	4099      	lsls	r1, r3
 80012aa:	4291      	cmp	r1, r2
 80012ac:	d9a7      	bls.n	80011fe <_malloc_r+0x116>
 80012ae:	68bd      	ldr	r5, [r7, #8]
 80012b0:	686b      	ldr	r3, [r5, #4]
 80012b2:	f023 0903 	bic.w	r9, r3, #3
 80012b6:	454e      	cmp	r6, r9
 80012b8:	d803      	bhi.n	80012c2 <_malloc_r+0x1da>
 80012ba:	eba9 0306 	sub.w	r3, r9, r6
 80012be:	2b0f      	cmp	r3, #15
 80012c0:	dc7a      	bgt.n	80013b8 <_malloc_r+0x2d0>
 80012c2:	f8df b124 	ldr.w	fp, [pc, #292]	; 80013e8 <_malloc_r+0x300>
 80012c6:	4b49      	ldr	r3, [pc, #292]	; (80013ec <_malloc_r+0x304>)
 80012c8:	f8db 2000 	ldr.w	r2, [fp]
 80012cc:	681b      	ldr	r3, [r3, #0]
 80012ce:	3201      	adds	r2, #1
 80012d0:	4433      	add	r3, r6
 80012d2:	eb05 0a09 	add.w	sl, r5, r9
 80012d6:	f000 8133 	beq.w	8001540 <_malloc_r+0x458>
 80012da:	f503 5380 	add.w	r3, r3, #4096	; 0x1000
 80012de:	330f      	adds	r3, #15
 80012e0:	f423 687f 	bic.w	r8, r3, #4080	; 0xff0
 80012e4:	f028 080f 	bic.w	r8, r8, #15
 80012e8:	4641      	mov	r1, r8
 80012ea:	4620      	mov	r0, r4
 80012ec:	f000 fc20 	bl	8001b30 <_sbrk_r>
 80012f0:	1c41      	adds	r1, r0, #1
 80012f2:	4602      	mov	r2, r0
 80012f4:	f000 80f3 	beq.w	80014de <_malloc_r+0x3f6>
 80012f8:	4582      	cmp	sl, r0
 80012fa:	f200 80ee 	bhi.w	80014da <_malloc_r+0x3f2>
 80012fe:	4b3c      	ldr	r3, [pc, #240]	; (80013f0 <_malloc_r+0x308>)
 8001300:	6819      	ldr	r1, [r3, #0]
 8001302:	4441      	add	r1, r8
 8001304:	6019      	str	r1, [r3, #0]
 8001306:	4608      	mov	r0, r1
 8001308:	f000 814e 	beq.w	80015a8 <_malloc_r+0x4c0>
 800130c:	f8db 1000 	ldr.w	r1, [fp]
 8001310:	9301      	str	r3, [sp, #4]
 8001312:	3101      	adds	r1, #1
 8001314:	bf1b      	ittet	ne
 8001316:	eba2 0a0a 	subne.w	sl, r2, sl
 800131a:	4450      	addne	r0, sl
 800131c:	f8cb 2000 	streq.w	r2, [fp]
 8001320:	6018      	strne	r0, [r3, #0]
 8001322:	f012 0b07 	ands.w	fp, r2, #7
 8001326:	f000 8117 	beq.w	8001558 <_malloc_r+0x470>
 800132a:	f1cb 0108 	rsb	r1, fp, #8
 800132e:	440a      	add	r2, r1
 8001330:	f5cb 5180 	rsb	r1, fp, #4096	; 0x1000
 8001334:	4490      	add	r8, r2
 8001336:	3108      	adds	r1, #8
 8001338:	eba1 0108 	sub.w	r1, r1, r8
 800133c:	f3c1 0a0b 	ubfx	sl, r1, #0, #12
 8001340:	4651      	mov	r1, sl
 8001342:	4620      	mov	r0, r4
 8001344:	9200      	str	r2, [sp, #0]
 8001346:	f000 fbf3 	bl	8001b30 <_sbrk_r>
 800134a:	1c42      	adds	r2, r0, #1
 800134c:	e9dd 2300 	ldrd	r2, r3, [sp]
 8001350:	f000 814f 	beq.w	80015f2 <_malloc_r+0x50a>
 8001354:	1a80      	subs	r0, r0, r2
 8001356:	eb00 080a 	add.w	r8, r0, sl
 800135a:	6819      	ldr	r1, [r3, #0]
 800135c:	60ba      	str	r2, [r7, #8]
 800135e:	f048 0001 	orr.w	r0, r8, #1
 8001362:	4451      	add	r1, sl
 8001364:	42bd      	cmp	r5, r7
 8001366:	6050      	str	r0, [r2, #4]
 8001368:	6019      	str	r1, [r3, #0]
 800136a:	f000 8129 	beq.w	80015c0 <_malloc_r+0x4d8>
 800136e:	f1b9 0f0f 	cmp.w	r9, #15
 8001372:	f240 8127 	bls.w	80015c4 <_malloc_r+0x4dc>
 8001376:	6868      	ldr	r0, [r5, #4]
 8001378:	f1a9 0c0c 	sub.w	ip, r9, #12
 800137c:	f02c 0c07 	bic.w	ip, ip, #7
 8001380:	f000 0001 	and.w	r0, r0, #1
 8001384:	ea40 000c 	orr.w	r0, r0, ip
 8001388:	6068      	str	r0, [r5, #4]
 800138a:	f04f 0e05 	mov.w	lr, #5
 800138e:	eb05 000c 	add.w	r0, r5, ip
 8001392:	f1bc 0f0f 	cmp.w	ip, #15
 8001396:	e9c0 ee01 	strd	lr, lr, [r0, #4]
 800139a:	f200 8132 	bhi.w	8001602 <_malloc_r+0x51a>
 800139e:	6850      	ldr	r0, [r2, #4]
 80013a0:	4615      	mov	r5, r2
 80013a2:	4b14      	ldr	r3, [pc, #80]	; (80013f4 <_malloc_r+0x30c>)
 80013a4:	681a      	ldr	r2, [r3, #0]
 80013a6:	428a      	cmp	r2, r1
 80013a8:	bf38      	it	cc
 80013aa:	6019      	strcc	r1, [r3, #0]
 80013ac:	4b12      	ldr	r3, [pc, #72]	; (80013f8 <_malloc_r+0x310>)
 80013ae:	681a      	ldr	r2, [r3, #0]
 80013b0:	428a      	cmp	r2, r1
 80013b2:	bf38      	it	cc
 80013b4:	6019      	strcc	r1, [r3, #0]
 80013b6:	e094      	b.n	80014e2 <_malloc_r+0x3fa>
 80013b8:	19aa      	adds	r2, r5, r6
 80013ba:	f043 0301 	orr.w	r3, r3, #1
 80013be:	f046 0601 	orr.w	r6, r6, #1
 80013c2:	606e      	str	r6, [r5, #4]
 80013c4:	4620      	mov	r0, r4
 80013c6:	60ba      	str	r2, [r7, #8]
 80013c8:	6053      	str	r3, [r2, #4]
 80013ca:	f000 f9bf 	bl	800174c <__malloc_unlock>
 80013ce:	3508      	adds	r5, #8
 80013d0:	4628      	mov	r0, r5
 80013d2:	b003      	add	sp, #12
 80013d4:	e8bd 8ff0 	ldmia.w	sp!, {r4, r5, r6, r7, r8, r9, sl, fp, pc}
 80013d8:	68d9      	ldr	r1, [r3, #12]
 80013da:	441a      	add	r2, r3
 80013dc:	e6a1      	b.n	8001122 <_malloc_r+0x3a>
 80013de:	bf00      	nop
 80013e0:	2000055c 	.word	0x2000055c
 80013e4:	20000564 	.word	0x20000564
 80013e8:	20000964 	.word	0x20000964
 80013ec:	20000a58 	.word	0x20000a58
 80013f0:	20000a28 	.word	0x20000a28
 80013f4:	20000a50 	.word	0x20000a50
 80013f8:	20000a54 	.word	0x20000a54
 80013fc:	f5b2 6f20 	cmp.w	r2, #2560	; 0xa00
 8001400:	ea4f 2352 	mov.w	r3, r2, lsr #9
 8001404:	d363      	bcc.n	80014ce <_malloc_r+0x3e6>
 8001406:	2b14      	cmp	r3, #20
 8001408:	f200 80b7 	bhi.w	800157a <_malloc_r+0x492>
 800140c:	f103 015c 	add.w	r1, r3, #92	; 0x5c
 8001410:	00c9      	lsls	r1, r1, #3
 8001412:	335b      	adds	r3, #91	; 0x5b
 8001414:	eb07 0e01 	add.w	lr, r7, r1
 8001418:	5879      	ldr	r1, [r7, r1]
 800141a:	f1ae 0e08 	sub.w	lr, lr, #8
 800141e:	458e      	cmp	lr, r1
 8001420:	f000 8091 	beq.w	8001546 <_malloc_r+0x45e>
 8001424:	684b      	ldr	r3, [r1, #4]
 8001426:	f023 0303 	bic.w	r3, r3, #3
 800142a:	4293      	cmp	r3, r2
 800142c:	d902      	bls.n	8001434 <_malloc_r+0x34c>
 800142e:	6889      	ldr	r1, [r1, #8]
 8001430:	458e      	cmp	lr, r1
 8001432:	d1f7      	bne.n	8001424 <_malloc_r+0x33c>
 8001434:	f8d1 e00c 	ldr.w	lr, [r1, #12]
 8001438:	687a      	ldr	r2, [r7, #4]
 800143a:	e9c5 1e02 	strd	r1, lr, [r5, #8]
 800143e:	f8ce 5008 	str.w	r5, [lr, #8]
 8001442:	60cd      	str	r5, [r1, #12]
 8001444:	e6d6      	b.n	80011f4 <_malloc_r+0x10c>
 8001446:	2b14      	cmp	r3, #20
 8001448:	d959      	bls.n	80014fe <_malloc_r+0x416>
 800144a:	2b54      	cmp	r3, #84	; 0x54
 800144c:	f200 809d 	bhi.w	800158a <_malloc_r+0x4a2>
 8001450:	0b33      	lsrs	r3, r6, #12
 8001452:	f103 006f 	add.w	r0, r3, #111	; 0x6f
 8001456:	f103 0c6e 	add.w	ip, r3, #110	; 0x6e
 800145a:	00c3      	lsls	r3, r0, #3
 800145c:	e68a      	b.n	8001174 <_malloc_r+0x8c>
 800145e:	f10e 0e01 	add.w	lr, lr, #1
 8001462:	f01e 0f03 	tst.w	lr, #3
 8001466:	f105 0508 	add.w	r5, r5, #8
 800146a:	f47f aed5 	bne.w	8001218 <_malloc_r+0x130>
 800146e:	e051      	b.n	8001514 <_malloc_r+0x42c>
 8001470:	4442      	add	r2, r8
 8001472:	4645      	mov	r5, r8
 8001474:	6853      	ldr	r3, [r2, #4]
 8001476:	f8d8 100c 	ldr.w	r1, [r8, #12]
 800147a:	f043 0301 	orr.w	r3, r3, #1
 800147e:	6053      	str	r3, [r2, #4]
 8001480:	f855 3f08 	ldr.w	r3, [r5, #8]!
 8001484:	4620      	mov	r0, r4
 8001486:	60d9      	str	r1, [r3, #12]
 8001488:	608b      	str	r3, [r1, #8]
 800148a:	f000 f95f 	bl	800174c <__malloc_unlock>
 800148e:	e6f3      	b.n	8001278 <_malloc_r+0x190>
 8001490:	08f0      	lsrs	r0, r6, #3
 8001492:	f106 0208 	add.w	r2, r6, #8
 8001496:	e637      	b.n	8001108 <_malloc_r+0x20>
 8001498:	442a      	add	r2, r5
 800149a:	4620      	mov	r0, r4
 800149c:	6853      	ldr	r3, [r2, #4]
 800149e:	f043 0301 	orr.w	r3, r3, #1
 80014a2:	6053      	str	r3, [r2, #4]
 80014a4:	3508      	adds	r5, #8
 80014a6:	f000 f951 	bl	800174c <__malloc_unlock>
 80014aa:	e6e5      	b.n	8001278 <_malloc_r+0x190>
 80014ac:	19a9      	adds	r1, r5, r6
 80014ae:	4620      	mov	r0, r4
 80014b0:	f046 0601 	orr.w	r6, r6, #1
 80014b4:	f043 0401 	orr.w	r4, r3, #1
 80014b8:	606e      	str	r6, [r5, #4]
 80014ba:	e9c7 1104 	strd	r1, r1, [r7, #16]
 80014be:	e9c1 cc02 	strd	ip, ip, [r1, #8]
 80014c2:	604c      	str	r4, [r1, #4]
 80014c4:	50ab      	str	r3, [r5, r2]
 80014c6:	f000 f941 	bl	800174c <__malloc_unlock>
 80014ca:	3508      	adds	r5, #8
 80014cc:	e6d4      	b.n	8001278 <_malloc_r+0x190>
 80014ce:	0993      	lsrs	r3, r2, #6
 80014d0:	f103 0139 	add.w	r1, r3, #57	; 0x39
 80014d4:	00c9      	lsls	r1, r1, #3
 80014d6:	3338      	adds	r3, #56	; 0x38
 80014d8:	e79c      	b.n	8001414 <_malloc_r+0x32c>
 80014da:	42bd      	cmp	r5, r7
 80014dc:	d05f      	beq.n	800159e <_malloc_r+0x4b6>
 80014de:	68bd      	ldr	r5, [r7, #8]
 80014e0:	6868      	ldr	r0, [r5, #4]
 80014e2:	f020 0803 	bic.w	r8, r0, #3
 80014e6:	4546      	cmp	r6, r8
 80014e8:	eba8 0306 	sub.w	r3, r8, r6
 80014ec:	d802      	bhi.n	80014f4 <_malloc_r+0x40c>
 80014ee:	2b0f      	cmp	r3, #15
 80014f0:	f73f af62 	bgt.w	80013b8 <_malloc_r+0x2d0>
 80014f4:	4620      	mov	r0, r4
 80014f6:	f000 f929 	bl	800174c <__malloc_unlock>
 80014fa:	2500      	movs	r5, #0
 80014fc:	e6bc      	b.n	8001278 <_malloc_r+0x190>
 80014fe:	f103 005c 	add.w	r0, r3, #92	; 0x5c
 8001502:	f103 0c5b 	add.w	ip, r3, #91	; 0x5b
 8001506:	00c3      	lsls	r3, r0, #3
 8001508:	e634      	b.n	8001174 <_malloc_r+0x8c>
 800150a:	f859 3908 	ldr.w	r3, [r9], #-8
 800150e:	454b      	cmp	r3, r9
 8001510:	f040 8096 	bne.w	8001640 <_malloc_r+0x558>
 8001514:	f010 0f03 	tst.w	r0, #3
 8001518:	f100 30ff 	add.w	r0, r0, #4294967295
 800151c:	d1f5      	bne.n	800150a <_malloc_r+0x422>
 800151e:	687b      	ldr	r3, [r7, #4]
 8001520:	ea23 0301 	bic.w	r3, r3, r1
 8001524:	607b      	str	r3, [r7, #4]
 8001526:	0049      	lsls	r1, r1, #1
 8001528:	4299      	cmp	r1, r3
 800152a:	f63f aec0 	bhi.w	80012ae <_malloc_r+0x1c6>
 800152e:	b919      	cbnz	r1, 8001538 <_malloc_r+0x450>
 8001530:	e6bd      	b.n	80012ae <_malloc_r+0x1c6>
 8001532:	0049      	lsls	r1, r1, #1
 8001534:	f10e 0e04 	add.w	lr, lr, #4
 8001538:	4219      	tst	r1, r3
 800153a:	d0fa      	beq.n	8001532 <_malloc_r+0x44a>
 800153c:	4670      	mov	r0, lr
 800153e:	e667      	b.n	8001210 <_malloc_r+0x128>
 8001540:	f103 0810 	add.w	r8, r3, #16
 8001544:	e6d0      	b.n	80012e8 <_malloc_r+0x200>
 8001546:	109a      	asrs	r2, r3, #2
 8001548:	f04f 0801 	mov.w	r8, #1
 800154c:	687b      	ldr	r3, [r7, #4]
 800154e:	fa08 f202 	lsl.w	r2, r8, r2
 8001552:	431a      	orrs	r2, r3
 8001554:	607a      	str	r2, [r7, #4]
 8001556:	e770      	b.n	800143a <_malloc_r+0x352>
 8001558:	eb02 0108 	add.w	r1, r2, r8
 800155c:	4249      	negs	r1, r1
 800155e:	f3c1 0a0b 	ubfx	sl, r1, #0, #12
 8001562:	4651      	mov	r1, sl
 8001564:	4620      	mov	r0, r4
 8001566:	9200      	str	r2, [sp, #0]
 8001568:	f000 fae2 	bl	8001b30 <_sbrk_r>
 800156c:	1c43      	adds	r3, r0, #1
 800156e:	e9dd 2300 	ldrd	r2, r3, [sp]
 8001572:	f47f aeef 	bne.w	8001354 <_malloc_r+0x26c>
 8001576:	46da      	mov	sl, fp
 8001578:	e6ef      	b.n	800135a <_malloc_r+0x272>
 800157a:	2b54      	cmp	r3, #84	; 0x54
 800157c:	d825      	bhi.n	80015ca <_malloc_r+0x4e2>
 800157e:	0b13      	lsrs	r3, r2, #12
 8001580:	f103 016f 	add.w	r1, r3, #111	; 0x6f
 8001584:	00c9      	lsls	r1, r1, #3
 8001586:	336e      	adds	r3, #110	; 0x6e
 8001588:	e744      	b.n	8001414 <_malloc_r+0x32c>
 800158a:	f5b3 7faa 	cmp.w	r3, #340	; 0x154
 800158e:	d825      	bhi.n	80015dc <_malloc_r+0x4f4>
 8001590:	0bf3      	lsrs	r3, r6, #15
 8001592:	f103 0078 	add.w	r0, r3, #120	; 0x78
 8001596:	f103 0c77 	add.w	ip, r3, #119	; 0x77
 800159a:	00c3      	lsls	r3, r0, #3
 800159c:	e5ea      	b.n	8001174 <_malloc_r+0x8c>
 800159e:	4b29      	ldr	r3, [pc, #164]	; (8001644 <_malloc_r+0x55c>)
 80015a0:	6818      	ldr	r0, [r3, #0]
 80015a2:	4440      	add	r0, r8
 80015a4:	6018      	str	r0, [r3, #0]
 80015a6:	e6b1      	b.n	800130c <_malloc_r+0x224>
 80015a8:	f3ca 0c0b 	ubfx	ip, sl, #0, #12
 80015ac:	f1bc 0f00 	cmp.w	ip, #0
 80015b0:	f47f aeac 	bne.w	800130c <_malloc_r+0x224>
 80015b4:	68bd      	ldr	r5, [r7, #8]
 80015b6:	44c8      	add	r8, r9
 80015b8:	f048 0001 	orr.w	r0, r8, #1
 80015bc:	6068      	str	r0, [r5, #4]
 80015be:	e6f0      	b.n	80013a2 <_malloc_r+0x2ba>
 80015c0:	4615      	mov	r5, r2
 80015c2:	e6ee      	b.n	80013a2 <_malloc_r+0x2ba>
 80015c4:	2301      	movs	r3, #1
 80015c6:	6053      	str	r3, [r2, #4]
 80015c8:	e794      	b.n	80014f4 <_malloc_r+0x40c>
 80015ca:	f5b3 7faa 	cmp.w	r3, #340	; 0x154
 80015ce:	d823      	bhi.n	8001618 <_malloc_r+0x530>
 80015d0:	0bd3      	lsrs	r3, r2, #15
 80015d2:	f103 0178 	add.w	r1, r3, #120	; 0x78
 80015d6:	00c9      	lsls	r1, r1, #3
 80015d8:	3377      	adds	r3, #119	; 0x77
 80015da:	e71b      	b.n	8001414 <_malloc_r+0x32c>
 80015dc:	f240 5254 	movw	r2, #1364	; 0x554
 80015e0:	4293      	cmp	r3, r2
 80015e2:	d823      	bhi.n	800162c <_malloc_r+0x544>
 80015e4:	0cb3      	lsrs	r3, r6, #18
 80015e6:	f103 007d 	add.w	r0, r3, #125	; 0x7d
 80015ea:	f103 0c7c 	add.w	ip, r3, #124	; 0x7c
 80015ee:	00c3      	lsls	r3, r0, #3
 80015f0:	e5c0      	b.n	8001174 <_malloc_r+0x8c>
 80015f2:	f1ab 0b08 	sub.w	fp, fp, #8
 80015f6:	44d8      	add	r8, fp
 80015f8:	eba8 0802 	sub.w	r8, r8, r2
 80015fc:	f04f 0a00 	mov.w	sl, #0
 8001600:	e6ab      	b.n	800135a <_malloc_r+0x272>
 8001602:	f105 0108 	add.w	r1, r5, #8
 8001606:	4620      	mov	r0, r4
 8001608:	9300      	str	r3, [sp, #0]
 800160a:	f000 fd79 	bl	8002100 <_free_r>
 800160e:	68bd      	ldr	r5, [r7, #8]
 8001610:	9b00      	ldr	r3, [sp, #0]
 8001612:	6868      	ldr	r0, [r5, #4]
 8001614:	6819      	ldr	r1, [r3, #0]
 8001616:	e6c4      	b.n	80013a2 <_malloc_r+0x2ba>
 8001618:	f240 5154 	movw	r1, #1364	; 0x554
 800161c:	428b      	cmp	r3, r1
 800161e:	d80b      	bhi.n	8001638 <_malloc_r+0x550>
 8001620:	0c93      	lsrs	r3, r2, #18
 8001622:	f103 017d 	add.w	r1, r3, #125	; 0x7d
 8001626:	00c9      	lsls	r1, r1, #3
 8001628:	337c      	adds	r3, #124	; 0x7c
 800162a:	e6f3      	b.n	8001414 <_malloc_r+0x32c>
 800162c:	f44f 737e 	mov.w	r3, #1016	; 0x3f8
 8001630:	207f      	movs	r0, #127	; 0x7f
 8001632:	f04f 0c7e 	mov.w	ip, #126	; 0x7e
 8001636:	e59d      	b.n	8001174 <_malloc_r+0x8c>
 8001638:	f44f 717e 	mov.w	r1, #1016	; 0x3f8
 800163c:	237e      	movs	r3, #126	; 0x7e
 800163e:	e6e9      	b.n	8001414 <_malloc_r+0x32c>
 8001640:	687b      	ldr	r3, [r7, #4]
 8001642:	e770      	b.n	8001526 <_malloc_r+0x43e>
 8001644:	20000a28 	.word	0x20000a28

08001648 <memmove>:
 8001648:	4288      	cmp	r0, r1
 800164a:	d90d      	bls.n	8001668 <memmove+0x20>
 800164c:	188b      	adds	r3, r1, r2
 800164e:	4283      	cmp	r3, r0
 8001650:	d90a      	bls.n	8001668 <memmove+0x20>
 8001652:	eb00 0c02 	add.w	ip, r0, r2
 8001656:	b1ba      	cbz	r2, 8001688 <memmove+0x40>
 8001658:	4662      	mov	r2, ip
 800165a:	f813 cd01 	ldrb.w	ip, [r3, #-1]!
 800165e:	f802 cd01 	strb.w	ip, [r2, #-1]!
 8001662:	4299      	cmp	r1, r3
 8001664:	d1f9      	bne.n	800165a <memmove+0x12>
 8001666:	4770      	bx	lr
 8001668:	2a0f      	cmp	r2, #15
 800166a:	d80e      	bhi.n	800168a <memmove+0x42>
 800166c:	4603      	mov	r3, r0
 800166e:	f102 3cff 	add.w	ip, r2, #4294967295
 8001672:	b14a      	cbz	r2, 8001688 <memmove+0x40>
 8001674:	f10c 0c01 	add.w	ip, ip, #1
 8001678:	3b01      	subs	r3, #1
 800167a:	448c      	add	ip, r1
 800167c:	f811 2b01 	ldrb.w	r2, [r1], #1
 8001680:	f803 2f01 	strb.w	r2, [r3, #1]!
 8001684:	4561      	cmp	r1, ip
 8001686:	d1f9      	bne.n	800167c <memmove+0x34>
 8001688:	4770      	bx	lr
 800168a:	ea40 0301 	orr.w	r3, r0, r1
 800168e:	079b      	lsls	r3, r3, #30
 8001690:	d150      	bne.n	8001734 <memmove+0xec>
 8001692:	f1a2 0310 	sub.w	r3, r2, #16
 8001696:	b570      	push	{r4, r5, r6, lr}
 8001698:	f101 0c20 	add.w	ip, r1, #32
 800169c:	f023 050f 	bic.w	r5, r3, #15
 80016a0:	f101 0e10 	add.w	lr, r1, #16
 80016a4:	f100 0410 	add.w	r4, r0, #16
 80016a8:	44ac      	add	ip, r5
 80016aa:	091b      	lsrs	r3, r3, #4
 80016ac:	f85e 5c10 	ldr.w	r5, [lr, #-16]
 80016b0:	f844 5c10 	str.w	r5, [r4, #-16]
 80016b4:	f85e 5c0c 	ldr.w	r5, [lr, #-12]
 80016b8:	f844 5c0c 	str.w	r5, [r4, #-12]
 80016bc:	f85e 5c08 	ldr.w	r5, [lr, #-8]
 80016c0:	f844 5c08 	str.w	r5, [r4, #-8]
 80016c4:	f85e 5c04 	ldr.w	r5, [lr, #-4]
 80016c8:	f844 5c04 	str.w	r5, [r4, #-4]
 80016cc:	f10e 0e10 	add.w	lr, lr, #16
 80016d0:	45e6      	cmp	lr, ip
 80016d2:	f104 0410 	add.w	r4, r4, #16
 80016d6:	d1e9      	bne.n	80016ac <memmove+0x64>
 80016d8:	3301      	adds	r3, #1
 80016da:	f012 0f0c 	tst.w	r2, #12
 80016de:	eb01 1103 	add.w	r1, r1, r3, lsl #4
 80016e2:	f002 040f 	and.w	r4, r2, #15
 80016e6:	eb00 1303 	add.w	r3, r0, r3, lsl #4
 80016ea:	d027      	beq.n	800173c <memmove+0xf4>
 80016ec:	3c04      	subs	r4, #4
 80016ee:	f024 0603 	bic.w	r6, r4, #3
 80016f2:	ea4f 0c94 	mov.w	ip, r4, lsr #2
 80016f6:	441e      	add	r6, r3
 80016f8:	1f1c      	subs	r4, r3, #4
 80016fa:	468e      	mov	lr, r1
 80016fc:	f85e 5b04 	ldr.w	r5, [lr], #4
 8001700:	f844 5f04 	str.w	r5, [r4, #4]!
 8001704:	42b4      	cmp	r4, r6
 8001706:	d1f9      	bne.n	80016fc <memmove+0xb4>
 8001708:	f10c 0401 	add.w	r4, ip, #1
 800170c:	f002 0203 	and.w	r2, r2, #3
 8001710:	eb03 0384 	add.w	r3, r3, r4, lsl #2
 8001714:	eb01 0184 	add.w	r1, r1, r4, lsl #2
 8001718:	f102 3cff 	add.w	ip, r2, #4294967295
 800171c:	b14a      	cbz	r2, 8001732 <memmove+0xea>
 800171e:	f10c 0c01 	add.w	ip, ip, #1
 8001722:	3b01      	subs	r3, #1
 8001724:	448c      	add	ip, r1
 8001726:	f811 2b01 	ldrb.w	r2, [r1], #1
 800172a:	f803 2f01 	strb.w	r2, [r3, #1]!
 800172e:	4561      	cmp	r1, ip
 8001730:	d1f9      	bne.n	8001726 <memmove+0xde>
 8001732:	bd70      	pop	{r4, r5, r6, pc}
 8001734:	f102 3cff 	add.w	ip, r2, #4294967295
 8001738:	4603      	mov	r3, r0
 800173a:	e79b      	b.n	8001674 <memmove+0x2c>
 800173c:	4622      	mov	r2, r4
 800173e:	e7eb      	b.n	8001718 <memmove+0xd0>

08001740 <__malloc_lock>:
 8001740:	4801      	ldr	r0, [pc, #4]	; (8001748 <__malloc_lock+0x8>)
 8001742:	f7ff bcc7 	b.w	80010d4 <__retarget_lock_acquire_recursive>
 8001746:	bf00      	nop
 8001748:	20000a18 	.word	0x20000a18

0800174c <__malloc_unlock>:
 800174c:	4801      	ldr	r0, [pc, #4]	; (8001754 <__malloc_unlock+0x8>)
 800174e:	f7ff bcc9 	b.w	80010e4 <__retarget_lock_release_recursive>
 8001752:	bf00      	nop
 8001754:	20000a18 	.word	0x20000a18

08001758 <_realloc_r>:
 8001758:	e92d 4ff8 	stmdb	sp!, {r3, r4, r5, r6, r7, r8, r9, sl, fp, lr}
 800175c:	4617      	mov	r7, r2
 800175e:	2900      	cmp	r1, #0
 8001760:	f000 8098 	beq.w	8001894 <_realloc_r+0x13c>
 8001764:	f107 050b 	add.w	r5, r7, #11
 8001768:	4680      	mov	r8, r0
 800176a:	460c      	mov	r4, r1
 800176c:	f7ff ffe8 	bl	8001740 <__malloc_lock>
 8001770:	2d16      	cmp	r5, #22
 8001772:	d85d      	bhi.n	8001830 <_realloc_r+0xd8>
 8001774:	2510      	movs	r5, #16
 8001776:	462a      	mov	r2, r5
 8001778:	42af      	cmp	r7, r5
 800177a:	d85e      	bhi.n	800183a <_realloc_r+0xe2>
 800177c:	f854 1c04 	ldr.w	r1, [r4, #-4]
 8001780:	f021 0603 	bic.w	r6, r1, #3
 8001784:	4296      	cmp	r6, r2
 8001786:	f1a4 0908 	sub.w	r9, r4, #8
 800178a:	da62      	bge.n	8001852 <_realloc_r+0xfa>
 800178c:	4bbc      	ldr	r3, [pc, #752]	; (8001a80 <_realloc_r+0x328>)
 800178e:	f8d3 c008 	ldr.w	ip, [r3, #8]
 8001792:	eb09 0006 	add.w	r0, r9, r6
 8001796:	4584      	cmp	ip, r0
 8001798:	f000 8097 	beq.w	80018ca <_realloc_r+0x172>
 800179c:	f8d0 c004 	ldr.w	ip, [r0, #4]
 80017a0:	f02c 0301 	bic.w	r3, ip, #1
 80017a4:	4403      	add	r3, r0
 80017a6:	685b      	ldr	r3, [r3, #4]
 80017a8:	07db      	lsls	r3, r3, #31
 80017aa:	d468      	bmi.n	800187e <_realloc_r+0x126>
 80017ac:	f02c 0c03 	bic.w	ip, ip, #3
 80017b0:	eb06 030c 	add.w	r3, r6, ip
 80017b4:	4293      	cmp	r3, r2
 80017b6:	da47      	bge.n	8001848 <_realloc_r+0xf0>
 80017b8:	07cb      	lsls	r3, r1, #31
 80017ba:	d410      	bmi.n	80017de <_realloc_r+0x86>
 80017bc:	f854 3c08 	ldr.w	r3, [r4, #-8]
 80017c0:	eba9 0a03 	sub.w	sl, r9, r3
 80017c4:	f8da 3004 	ldr.w	r3, [sl, #4]
 80017c8:	f023 0103 	bic.w	r1, r3, #3
 80017cc:	448c      	add	ip, r1
 80017ce:	44b4      	add	ip, r6
 80017d0:	4594      	cmp	ip, r2
 80017d2:	f280 8111 	bge.w	80019f8 <_realloc_r+0x2a0>
 80017d6:	1873      	adds	r3, r6, r1
 80017d8:	4293      	cmp	r3, r2
 80017da:	f280 80e8 	bge.w	80019ae <_realloc_r+0x256>
 80017de:	4639      	mov	r1, r7
 80017e0:	4640      	mov	r0, r8
 80017e2:	f7ff fc81 	bl	80010e8 <_malloc_r>
 80017e6:	4607      	mov	r7, r0
 80017e8:	b1e0      	cbz	r0, 8001824 <_realloc_r+0xcc>
 80017ea:	f854 3c04 	ldr.w	r3, [r4, #-4]
 80017ee:	f023 0301 	bic.w	r3, r3, #1
 80017f2:	444b      	add	r3, r9
 80017f4:	f1a0 0208 	sub.w	r2, r0, #8
 80017f8:	4293      	cmp	r3, r2
 80017fa:	f000 80d2 	beq.w	80019a2 <_realloc_r+0x24a>
 80017fe:	1f32      	subs	r2, r6, #4
 8001800:	2a24      	cmp	r2, #36	; 0x24
 8001802:	f200 80f5 	bhi.w	80019f0 <_realloc_r+0x298>
 8001806:	2a13      	cmp	r2, #19
 8001808:	f200 80ac 	bhi.w	8001964 <_realloc_r+0x20c>
 800180c:	4603      	mov	r3, r0
 800180e:	4622      	mov	r2, r4
 8001810:	6811      	ldr	r1, [r2, #0]
 8001812:	6019      	str	r1, [r3, #0]
 8001814:	6851      	ldr	r1, [r2, #4]
 8001816:	6059      	str	r1, [r3, #4]
 8001818:	6892      	ldr	r2, [r2, #8]
 800181a:	609a      	str	r2, [r3, #8]
 800181c:	4621      	mov	r1, r4
 800181e:	4640      	mov	r0, r8
 8001820:	f000 fc6e 	bl	8002100 <_free_r>
 8001824:	4640      	mov	r0, r8
 8001826:	f7ff ff91 	bl	800174c <__malloc_unlock>
 800182a:	4638      	mov	r0, r7
 800182c:	e8bd 8ff8 	ldmia.w	sp!, {r3, r4, r5, r6, r7, r8, r9, sl, fp, pc}
 8001830:	f025 0507 	bic.w	r5, r5, #7
 8001834:	2d00      	cmp	r5, #0
 8001836:	462a      	mov	r2, r5
 8001838:	da9e      	bge.n	8001778 <_realloc_r+0x20>
 800183a:	230c      	movs	r3, #12
 800183c:	f8c8 3000 	str.w	r3, [r8]
 8001840:	2700      	movs	r7, #0
 8001842:	4638      	mov	r0, r7
 8001844:	e8bd 8ff8 	ldmia.w	sp!, {r3, r4, r5, r6, r7, r8, r9, sl, fp, pc}
 8001848:	461e      	mov	r6, r3
 800184a:	e9d0 2302 	ldrd	r2, r3, [r0, #8]
 800184e:	60d3      	str	r3, [r2, #12]
 8001850:	609a      	str	r2, [r3, #8]
 8001852:	1b73      	subs	r3, r6, r5
 8001854:	2b0f      	cmp	r3, #15
 8001856:	d822      	bhi.n	800189e <_realloc_r+0x146>
 8001858:	f8d9 3004 	ldr.w	r3, [r9, #4]
 800185c:	f003 0301 	and.w	r3, r3, #1
 8001860:	4333      	orrs	r3, r6
 8001862:	444e      	add	r6, r9
 8001864:	f8c9 3004 	str.w	r3, [r9, #4]
 8001868:	6873      	ldr	r3, [r6, #4]
 800186a:	f043 0301 	orr.w	r3, r3, #1
 800186e:	6073      	str	r3, [r6, #4]
 8001870:	4640      	mov	r0, r8
 8001872:	4627      	mov	r7, r4
 8001874:	f7ff ff6a 	bl	800174c <__malloc_unlock>
 8001878:	4638      	mov	r0, r7
 800187a:	e8bd 8ff8 	ldmia.w	sp!, {r3, r4, r5, r6, r7, r8, r9, sl, fp, pc}
 800187e:	07c9      	lsls	r1, r1, #31
 8001880:	d4ad      	bmi.n	80017de <_realloc_r+0x86>
 8001882:	f854 3c08 	ldr.w	r3, [r4, #-8]
 8001886:	eba9 0a03 	sub.w	sl, r9, r3
 800188a:	f8da 1004 	ldr.w	r1, [sl, #4]
 800188e:	f021 0103 	bic.w	r1, r1, #3
 8001892:	e7a0      	b.n	80017d6 <_realloc_r+0x7e>
 8001894:	e8bd 4ff8 	ldmia.w	sp!, {r3, r4, r5, r6, r7, r8, r9, sl, fp, lr}
 8001898:	4611      	mov	r1, r2
 800189a:	f7ff bc25 	b.w	80010e8 <_malloc_r>
 800189e:	f8d9 1004 	ldr.w	r1, [r9, #4]
 80018a2:	f001 0101 	and.w	r1, r1, #1
 80018a6:	4329      	orrs	r1, r5
 80018a8:	f8c9 1004 	str.w	r1, [r9, #4]
 80018ac:	eb09 0105 	add.w	r1, r9, r5
 80018b0:	444e      	add	r6, r9
 80018b2:	f043 0301 	orr.w	r3, r3, #1
 80018b6:	604b      	str	r3, [r1, #4]
 80018b8:	6873      	ldr	r3, [r6, #4]
 80018ba:	f043 0301 	orr.w	r3, r3, #1
 80018be:	3108      	adds	r1, #8
 80018c0:	6073      	str	r3, [r6, #4]
 80018c2:	4640      	mov	r0, r8
 80018c4:	f000 fc1c 	bl	8002100 <_free_r>
 80018c8:	e7d2      	b.n	8001870 <_realloc_r+0x118>
 80018ca:	f8dc 0004 	ldr.w	r0, [ip, #4]
 80018ce:	f020 0b03 	bic.w	fp, r0, #3
 80018d2:	eb06 0c0b 	add.w	ip, r6, fp
 80018d6:	f105 0010 	add.w	r0, r5, #16
 80018da:	4584      	cmp	ip, r0
 80018dc:	da4d      	bge.n	800197a <_realloc_r+0x222>
 80018de:	07c9      	lsls	r1, r1, #31
 80018e0:	f53f af7d 	bmi.w	80017de <_realloc_r+0x86>
 80018e4:	f854 1c08 	ldr.w	r1, [r4, #-8]
 80018e8:	eba9 0a01 	sub.w	sl, r9, r1
 80018ec:	f8da 1004 	ldr.w	r1, [sl, #4]
 80018f0:	f021 0103 	bic.w	r1, r1, #3
 80018f4:	448b      	add	fp, r1
 80018f6:	44b3      	add	fp, r6
 80018f8:	4558      	cmp	r0, fp
 80018fa:	f73f af6c 	bgt.w	80017d6 <_realloc_r+0x7e>
 80018fe:	4657      	mov	r7, sl
 8001900:	f8da 100c 	ldr.w	r1, [sl, #12]
 8001904:	f857 0f08 	ldr.w	r0, [r7, #8]!
 8001908:	1f32      	subs	r2, r6, #4
 800190a:	2a24      	cmp	r2, #36	; 0x24
 800190c:	60c1      	str	r1, [r0, #12]
 800190e:	6088      	str	r0, [r1, #8]
 8001910:	f200 80db 	bhi.w	8001aca <_realloc_r+0x372>
 8001914:	2a13      	cmp	r2, #19
 8001916:	f240 80d6 	bls.w	8001ac6 <_realloc_r+0x36e>
 800191a:	6821      	ldr	r1, [r4, #0]
 800191c:	f8ca 1008 	str.w	r1, [sl, #8]
 8001920:	6861      	ldr	r1, [r4, #4]
 8001922:	f8ca 100c 	str.w	r1, [sl, #12]
 8001926:	2a1b      	cmp	r2, #27
 8001928:	f200 80df 	bhi.w	8001aea <_realloc_r+0x392>
 800192c:	3408      	adds	r4, #8
 800192e:	f10a 0210 	add.w	r2, sl, #16
 8001932:	6821      	ldr	r1, [r4, #0]
 8001934:	6011      	str	r1, [r2, #0]
 8001936:	6861      	ldr	r1, [r4, #4]
 8001938:	6051      	str	r1, [r2, #4]
 800193a:	68a1      	ldr	r1, [r4, #8]
 800193c:	6091      	str	r1, [r2, #8]
 800193e:	eb0a 0105 	add.w	r1, sl, r5
 8001942:	ebab 0205 	sub.w	r2, fp, r5
 8001946:	f042 0201 	orr.w	r2, r2, #1
 800194a:	6099      	str	r1, [r3, #8]
 800194c:	604a      	str	r2, [r1, #4]
 800194e:	f8da 3004 	ldr.w	r3, [sl, #4]
 8001952:	f003 0301 	and.w	r3, r3, #1
 8001956:	431d      	orrs	r5, r3
 8001958:	4640      	mov	r0, r8
 800195a:	f8ca 5004 	str.w	r5, [sl, #4]
 800195e:	f7ff fef5 	bl	800174c <__malloc_unlock>
 8001962:	e76e      	b.n	8001842 <_realloc_r+0xea>
 8001964:	6823      	ldr	r3, [r4, #0]
 8001966:	6003      	str	r3, [r0, #0]
 8001968:	6863      	ldr	r3, [r4, #4]
 800196a:	6043      	str	r3, [r0, #4]
 800196c:	2a1b      	cmp	r2, #27
 800196e:	d868      	bhi.n	8001a42 <_realloc_r+0x2ea>
 8001970:	f104 0208 	add.w	r2, r4, #8
 8001974:	f100 0308 	add.w	r3, r0, #8
 8001978:	e74a      	b.n	8001810 <_realloc_r+0xb8>
 800197a:	eb09 0205 	add.w	r2, r9, r5
 800197e:	609a      	str	r2, [r3, #8]
 8001980:	ebac 0305 	sub.w	r3, ip, r5
 8001984:	f043 0301 	orr.w	r3, r3, #1
 8001988:	6053      	str	r3, [r2, #4]
 800198a:	f854 3c04 	ldr.w	r3, [r4, #-4]
 800198e:	f003 0301 	and.w	r3, r3, #1
 8001992:	431d      	orrs	r5, r3
 8001994:	4640      	mov	r0, r8
 8001996:	f844 5c04 	str.w	r5, [r4, #-4]
 800199a:	f7ff fed7 	bl	800174c <__malloc_unlock>
 800199e:	4627      	mov	r7, r4
 80019a0:	e74f      	b.n	8001842 <_realloc_r+0xea>
 80019a2:	f850 3c04 	ldr.w	r3, [r0, #-4]
 80019a6:	f023 0303 	bic.w	r3, r3, #3
 80019aa:	441e      	add	r6, r3
 80019ac:	e751      	b.n	8001852 <_realloc_r+0xfa>
 80019ae:	4657      	mov	r7, sl
 80019b0:	f8da 100c 	ldr.w	r1, [sl, #12]
 80019b4:	f857 0f08 	ldr.w	r0, [r7, #8]!
 80019b8:	1f32      	subs	r2, r6, #4
 80019ba:	2a24      	cmp	r2, #36	; 0x24
 80019bc:	60c1      	str	r1, [r0, #12]
 80019be:	6088      	str	r0, [r1, #8]
 80019c0:	d84c      	bhi.n	8001a5c <_realloc_r+0x304>
 80019c2:	2a13      	cmp	r2, #19
 80019c4:	d948      	bls.n	8001a58 <_realloc_r+0x300>
 80019c6:	6821      	ldr	r1, [r4, #0]
 80019c8:	f8ca 1008 	str.w	r1, [sl, #8]
 80019cc:	6861      	ldr	r1, [r4, #4]
 80019ce:	f8ca 100c 	str.w	r1, [sl, #12]
 80019d2:	2a1b      	cmp	r2, #27
 80019d4:	d856      	bhi.n	8001a84 <_realloc_r+0x32c>
 80019d6:	3408      	adds	r4, #8
 80019d8:	f10a 0210 	add.w	r2, sl, #16
 80019dc:	461e      	mov	r6, r3
 80019de:	6823      	ldr	r3, [r4, #0]
 80019e0:	6013      	str	r3, [r2, #0]
 80019e2:	6863      	ldr	r3, [r4, #4]
 80019e4:	6053      	str	r3, [r2, #4]
 80019e6:	68a3      	ldr	r3, [r4, #8]
 80019e8:	6093      	str	r3, [r2, #8]
 80019ea:	46d1      	mov	r9, sl
 80019ec:	463c      	mov	r4, r7
 80019ee:	e730      	b.n	8001852 <_realloc_r+0xfa>
 80019f0:	4621      	mov	r1, r4
 80019f2:	f7ff fe29 	bl	8001648 <memmove>
 80019f6:	e711      	b.n	800181c <_realloc_r+0xc4>
 80019f8:	e9d0 1302 	ldrd	r1, r3, [r0, #8]
 80019fc:	4657      	mov	r7, sl
 80019fe:	60cb      	str	r3, [r1, #12]
 8001a00:	6099      	str	r1, [r3, #8]
 8001a02:	f857 1f08 	ldr.w	r1, [r7, #8]!
 8001a06:	f8da 300c 	ldr.w	r3, [sl, #12]
 8001a0a:	60cb      	str	r3, [r1, #12]
 8001a0c:	1f32      	subs	r2, r6, #4
 8001a0e:	2a24      	cmp	r2, #36	; 0x24
 8001a10:	6099      	str	r1, [r3, #8]
 8001a12:	d82d      	bhi.n	8001a70 <_realloc_r+0x318>
 8001a14:	2a13      	cmp	r2, #19
 8001a16:	d929      	bls.n	8001a6c <_realloc_r+0x314>
 8001a18:	6823      	ldr	r3, [r4, #0]
 8001a1a:	f8ca 3008 	str.w	r3, [sl, #8]
 8001a1e:	6863      	ldr	r3, [r4, #4]
 8001a20:	f8ca 300c 	str.w	r3, [sl, #12]
 8001a24:	2a1b      	cmp	r2, #27
 8001a26:	d842      	bhi.n	8001aae <_realloc_r+0x356>
 8001a28:	3408      	adds	r4, #8
 8001a2a:	f10a 0310 	add.w	r3, sl, #16
 8001a2e:	6822      	ldr	r2, [r4, #0]
 8001a30:	601a      	str	r2, [r3, #0]
 8001a32:	6862      	ldr	r2, [r4, #4]
 8001a34:	605a      	str	r2, [r3, #4]
 8001a36:	68a2      	ldr	r2, [r4, #8]
 8001a38:	609a      	str	r2, [r3, #8]
 8001a3a:	4666      	mov	r6, ip
 8001a3c:	46d1      	mov	r9, sl
 8001a3e:	463c      	mov	r4, r7
 8001a40:	e707      	b.n	8001852 <_realloc_r+0xfa>
 8001a42:	68a3      	ldr	r3, [r4, #8]
 8001a44:	6083      	str	r3, [r0, #8]
 8001a46:	68e3      	ldr	r3, [r4, #12]
 8001a48:	60c3      	str	r3, [r0, #12]
 8001a4a:	2a24      	cmp	r2, #36	; 0x24
 8001a4c:	d026      	beq.n	8001a9c <_realloc_r+0x344>
 8001a4e:	f104 0210 	add.w	r2, r4, #16
 8001a52:	f100 0310 	add.w	r3, r0, #16
 8001a56:	e6db      	b.n	8001810 <_realloc_r+0xb8>
 8001a58:	463a      	mov	r2, r7
 8001a5a:	e7bf      	b.n	80019dc <_realloc_r+0x284>
 8001a5c:	4621      	mov	r1, r4
 8001a5e:	4638      	mov	r0, r7
 8001a60:	461e      	mov	r6, r3
 8001a62:	46d1      	mov	r9, sl
 8001a64:	f7ff fdf0 	bl	8001648 <memmove>
 8001a68:	463c      	mov	r4, r7
 8001a6a:	e6f2      	b.n	8001852 <_realloc_r+0xfa>
 8001a6c:	463b      	mov	r3, r7
 8001a6e:	e7de      	b.n	8001a2e <_realloc_r+0x2d6>
 8001a70:	4621      	mov	r1, r4
 8001a72:	4638      	mov	r0, r7
 8001a74:	4666      	mov	r6, ip
 8001a76:	46d1      	mov	r9, sl
 8001a78:	f7ff fde6 	bl	8001648 <memmove>
 8001a7c:	463c      	mov	r4, r7
 8001a7e:	e6e8      	b.n	8001852 <_realloc_r+0xfa>
 8001a80:	2000055c 	.word	0x2000055c
 8001a84:	68a1      	ldr	r1, [r4, #8]
 8001a86:	f8ca 1010 	str.w	r1, [sl, #16]
 8001a8a:	68e1      	ldr	r1, [r4, #12]
 8001a8c:	f8ca 1014 	str.w	r1, [sl, #20]
 8001a90:	2a24      	cmp	r2, #36	; 0x24
 8001a92:	d020      	beq.n	8001ad6 <_realloc_r+0x37e>
 8001a94:	3410      	adds	r4, #16
 8001a96:	f10a 0218 	add.w	r2, sl, #24
 8001a9a:	e79f      	b.n	80019dc <_realloc_r+0x284>
 8001a9c:	6923      	ldr	r3, [r4, #16]
 8001a9e:	6103      	str	r3, [r0, #16]
 8001aa0:	6961      	ldr	r1, [r4, #20]
 8001aa2:	6141      	str	r1, [r0, #20]
 8001aa4:	f104 0218 	add.w	r2, r4, #24
 8001aa8:	f100 0318 	add.w	r3, r0, #24
 8001aac:	e6b0      	b.n	8001810 <_realloc_r+0xb8>
 8001aae:	68a3      	ldr	r3, [r4, #8]
 8001ab0:	f8ca 3010 	str.w	r3, [sl, #16]
 8001ab4:	68e3      	ldr	r3, [r4, #12]
 8001ab6:	f8ca 3014 	str.w	r3, [sl, #20]
 8001aba:	2a24      	cmp	r2, #36	; 0x24
 8001abc:	d021      	beq.n	8001b02 <_realloc_r+0x3aa>
 8001abe:	3410      	adds	r4, #16
 8001ac0:	f10a 0318 	add.w	r3, sl, #24
 8001ac4:	e7b3      	b.n	8001a2e <_realloc_r+0x2d6>
 8001ac6:	463a      	mov	r2, r7
 8001ac8:	e733      	b.n	8001932 <_realloc_r+0x1da>
 8001aca:	4621      	mov	r1, r4
 8001acc:	4638      	mov	r0, r7
 8001ace:	f7ff fdbb 	bl	8001648 <memmove>
 8001ad2:	4b16      	ldr	r3, [pc, #88]	; (8001b2c <_realloc_r+0x3d4>)
 8001ad4:	e733      	b.n	800193e <_realloc_r+0x1e6>
 8001ad6:	6922      	ldr	r2, [r4, #16]
 8001ad8:	f8ca 2018 	str.w	r2, [sl, #24]
 8001adc:	6962      	ldr	r2, [r4, #20]
 8001ade:	f8ca 201c 	str.w	r2, [sl, #28]
 8001ae2:	3418      	adds	r4, #24
 8001ae4:	f10a 0220 	add.w	r2, sl, #32
 8001ae8:	e778      	b.n	80019dc <_realloc_r+0x284>
 8001aea:	68a1      	ldr	r1, [r4, #8]
 8001aec:	f8ca 1010 	str.w	r1, [sl, #16]
 8001af0:	68e1      	ldr	r1, [r4, #12]
 8001af2:	f8ca 1014 	str.w	r1, [sl, #20]
 8001af6:	2a24      	cmp	r2, #36	; 0x24
 8001af8:	d00d      	beq.n	8001b16 <_realloc_r+0x3be>
 8001afa:	3410      	adds	r4, #16
 8001afc:	f10a 0218 	add.w	r2, sl, #24
 8001b00:	e717      	b.n	8001932 <_realloc_r+0x1da>
 8001b02:	6923      	ldr	r3, [r4, #16]
 8001b04:	f8ca 3018 	str.w	r3, [sl, #24]
 8001b08:	6963      	ldr	r3, [r4, #20]
 8001b0a:	f8ca 301c 	str.w	r3, [sl, #28]
 8001b0e:	3418      	adds	r4, #24
 8001b10:	f10a 0320 	add.w	r3, sl, #32
 8001b14:	e78b      	b.n	8001a2e <_realloc_r+0x2d6>
 8001b16:	6922      	ldr	r2, [r4, #16]
 8001b18:	f8ca 2018 	str.w	r2, [sl, #24]
 8001b1c:	6962      	ldr	r2, [r4, #20]
 8001b1e:	f8ca 201c 	str.w	r2, [sl, #28]
 8001b22:	3418      	adds	r4, #24
 8001b24:	f10a 0220 	add.w	r2, sl, #32
 8001b28:	e703      	b.n	8001932 <_realloc_r+0x1da>
 8001b2a:	bf00      	nop
 8001b2c:	2000055c 	.word	0x2000055c

08001b30 <_sbrk_r>:
 8001b30:	b538      	push	{r3, r4, r5, lr}
 8001b32:	4d07      	ldr	r5, [pc, #28]	; (8001b50 <_sbrk_r+0x20>)
 8001b34:	2200      	movs	r2, #0
 8001b36:	4604      	mov	r4, r0
 8001b38:	4608      	mov	r0, r1
 8001b3a:	602a      	str	r2, [r5, #0]
 8001b3c:	f000 ff06 	bl	800294c <_sbrk>
 8001b40:	1c43      	adds	r3, r0, #1
 8001b42:	d000      	beq.n	8001b46 <_sbrk_r+0x16>
 8001b44:	bd38      	pop	{r3, r4, r5, pc}
 8001b46:	682b      	ldr	r3, [r5, #0]
 8001b48:	2b00      	cmp	r3, #0
 8001b4a:	d0fb      	beq.n	8001b44 <_sbrk_r+0x14>
 8001b4c:	6023      	str	r3, [r4, #0]
 8001b4e:	bd38      	pop	{r3, r4, r5, pc}
 8001b50:	20000a5c 	.word	0x20000a5c

08001b54 <__sread>:
 8001b54:	b510      	push	{r4, lr}
 8001b56:	460c      	mov	r4, r1
 8001b58:	f9b1 100e 	ldrsh.w	r1, [r1, #14]
 8001b5c:	f000 fc8c 	bl	8002478 <_read_r>
 8001b60:	2800      	cmp	r0, #0
 8001b62:	db03      	blt.n	8001b6c <__sread+0x18>
 8001b64:	6d23      	ldr	r3, [r4, #80]	; 0x50
 8001b66:	4403      	add	r3, r0
 8001b68:	6523      	str	r3, [r4, #80]	; 0x50
 8001b6a:	bd10      	pop	{r4, pc}
 8001b6c:	89a3      	ldrh	r3, [r4, #12]
 8001b6e:	f423 5380 	bic.w	r3, r3, #4096	; 0x1000
 8001b72:	81a3      	strh	r3, [r4, #12]
 8001b74:	bd10      	pop	{r4, pc}
 8001b76:	bf00      	nop

08001b78 <__seofread>:
 8001b78:	2000      	movs	r0, #0
 8001b7a:	4770      	bx	lr

08001b7c <__swrite>:
 8001b7c:	e92d 41f0 	stmdb	sp!, {r4, r5, r6, r7, r8, lr}
 8001b80:	460c      	mov	r4, r1
 8001b82:	f9b1 100c 	ldrsh.w	r1, [r1, #12]
 8001b86:	461f      	mov	r7, r3
 8001b88:	05cb      	lsls	r3, r1, #23
 8001b8a:	4605      	mov	r5, r0
 8001b8c:	4616      	mov	r6, r2
 8001b8e:	d40b      	bmi.n	8001ba8 <__swrite+0x2c>
 8001b90:	f421 5180 	bic.w	r1, r1, #4096	; 0x1000
 8001b94:	81a1      	strh	r1, [r4, #12]
 8001b96:	463b      	mov	r3, r7
 8001b98:	f9b4 100e 	ldrsh.w	r1, [r4, #14]
 8001b9c:	4632      	mov	r2, r6
 8001b9e:	4628      	mov	r0, r5
 8001ba0:	e8bd 41f0 	ldmia.w	sp!, {r4, r5, r6, r7, r8, lr}
 8001ba4:	f000 b81e 	b.w	8001be4 <_write_r>
 8001ba8:	f9b4 100e 	ldrsh.w	r1, [r4, #14]
 8001bac:	2302      	movs	r3, #2
 8001bae:	2200      	movs	r2, #0
 8001bb0:	f000 fbac 	bl	800230c <_lseek_r>
 8001bb4:	f9b4 100c 	ldrsh.w	r1, [r4, #12]
 8001bb8:	e7ea      	b.n	8001b90 <__swrite+0x14>
 8001bba:	bf00      	nop

08001bbc <__sseek>:
 8001bbc:	b510      	push	{r4, lr}
 8001bbe:	460c      	mov	r4, r1
 8001bc0:	f9b1 100e 	ldrsh.w	r1, [r1, #14]
 8001bc4:	f000 fba2 	bl	800230c <_lseek_r>
 8001bc8:	89a3      	ldrh	r3, [r4, #12]
 8001bca:	1c42      	adds	r2, r0, #1
 8001bcc:	bf0e      	itee	eq
 8001bce:	f423 5380 	biceq.w	r3, r3, #4096	; 0x1000
 8001bd2:	f443 5380 	orrne.w	r3, r3, #4096	; 0x1000
 8001bd6:	6520      	strne	r0, [r4, #80]	; 0x50
 8001bd8:	81a3      	strh	r3, [r4, #12]
 8001bda:	bd10      	pop	{r4, pc}

08001bdc <__sclose>:
 8001bdc:	f9b1 100e 	ldrsh.w	r1, [r1, #14]
 8001be0:	f000 b8c6 	b.w	8001d70 <_close_r>

08001be4 <_write_r>:
 8001be4:	b538      	push	{r3, r4, r5, lr}
 8001be6:	460c      	mov	r4, r1
 8001be8:	4d08      	ldr	r5, [pc, #32]	; (8001c0c <_write_r+0x28>)
 8001bea:	4684      	mov	ip, r0
 8001bec:	4611      	mov	r1, r2
 8001bee:	4620      	mov	r0, r4
 8001bf0:	461a      	mov	r2, r3
 8001bf2:	2300      	movs	r3, #0
 8001bf4:	602b      	str	r3, [r5, #0]
 8001bf6:	4664      	mov	r4, ip
 8001bf8:	f000 fde0 	bl	80027bc <_write>
 8001bfc:	1c43      	adds	r3, r0, #1
 8001bfe:	d000      	beq.n	8001c02 <_write_r+0x1e>
 8001c00:	bd38      	pop	{r3, r4, r5, pc}
 8001c02:	682b      	ldr	r3, [r5, #0]
 8001c04:	2b00      	cmp	r3, #0
 8001c06:	d0fb      	beq.n	8001c00 <_write_r+0x1c>
 8001c08:	6023      	str	r3, [r4, #0]
 8001c0a:	bd38      	pop	{r3, r4, r5, pc}
 8001c0c:	20000a5c 	.word	0x20000a5c

08001c10 <__swsetup_r>:
 8001c10:	b538      	push	{r3, r4, r5, lr}
 8001c12:	4b33      	ldr	r3, [pc, #204]	; (8001ce0 <__swsetup_r+0xd0>)
 8001c14:	681b      	ldr	r3, [r3, #0]
 8001c16:	4605      	mov	r5, r0
 8001c18:	460c      	mov	r4, r1
 8001c1a:	b10b      	cbz	r3, 8001c20 <__swsetup_r+0x10>
 8001c1c:	6b9a      	ldr	r2, [r3, #56]	; 0x38
 8001c1e:	b312      	cbz	r2, 8001c66 <__swsetup_r+0x56>
 8001c20:	f9b4 300c 	ldrsh.w	r3, [r4, #12]
 8001c24:	0718      	lsls	r0, r3, #28
 8001c26:	b29a      	uxth	r2, r3
 8001c28:	d525      	bpl.n	8001c76 <__swsetup_r+0x66>
 8001c2a:	6921      	ldr	r1, [r4, #16]
 8001c2c:	2900      	cmp	r1, #0
 8001c2e:	d02d      	beq.n	8001c8c <__swsetup_r+0x7c>
 8001c30:	f012 0001 	ands.w	r0, r2, #1
 8001c34:	d007      	beq.n	8001c46 <__swsetup_r+0x36>
 8001c36:	2000      	movs	r0, #0
 8001c38:	60a0      	str	r0, [r4, #8]
 8001c3a:	6960      	ldr	r0, [r4, #20]
 8001c3c:	4240      	negs	r0, r0
 8001c3e:	61a0      	str	r0, [r4, #24]
 8001c40:	b139      	cbz	r1, 8001c52 <__swsetup_r+0x42>
 8001c42:	2000      	movs	r0, #0
 8001c44:	bd38      	pop	{r3, r4, r5, pc}
 8001c46:	0795      	lsls	r5, r2, #30
 8001c48:	bf58      	it	pl
 8001c4a:	6960      	ldrpl	r0, [r4, #20]
 8001c4c:	60a0      	str	r0, [r4, #8]
 8001c4e:	2900      	cmp	r1, #0
 8001c50:	d1f7      	bne.n	8001c42 <__swsetup_r+0x32>
 8001c52:	0612      	lsls	r2, r2, #24
 8001c54:	bf58      	it	pl
 8001c56:	4608      	movpl	r0, r1
 8001c58:	d5f4      	bpl.n	8001c44 <__swsetup_r+0x34>
 8001c5a:	f043 0340 	orr.w	r3, r3, #64	; 0x40
 8001c5e:	81a3      	strh	r3, [r4, #12]
 8001c60:	f04f 30ff 	mov.w	r0, #4294967295
 8001c64:	bd38      	pop	{r3, r4, r5, pc}
 8001c66:	4618      	mov	r0, r3
 8001c68:	f7fe ff36 	bl	8000ad8 <__sinit>
 8001c6c:	f9b4 300c 	ldrsh.w	r3, [r4, #12]
 8001c70:	0718      	lsls	r0, r3, #28
 8001c72:	b29a      	uxth	r2, r3
 8001c74:	d4d9      	bmi.n	8001c2a <__swsetup_r+0x1a>
 8001c76:	06d1      	lsls	r1, r2, #27
 8001c78:	d52a      	bpl.n	8001cd0 <__swsetup_r+0xc0>
 8001c7a:	0752      	lsls	r2, r2, #29
 8001c7c:	d414      	bmi.n	8001ca8 <__swsetup_r+0x98>
 8001c7e:	6921      	ldr	r1, [r4, #16]
 8001c80:	f043 0308 	orr.w	r3, r3, #8
 8001c84:	81a3      	strh	r3, [r4, #12]
 8001c86:	b29a      	uxth	r2, r3
 8001c88:	2900      	cmp	r1, #0
 8001c8a:	d1d1      	bne.n	8001c30 <__swsetup_r+0x20>
 8001c8c:	f402 7020 	and.w	r0, r2, #640	; 0x280
 8001c90:	f5b0 7f00 	cmp.w	r0, #512	; 0x200
 8001c94:	d0cc      	beq.n	8001c30 <__swsetup_r+0x20>
 8001c96:	4621      	mov	r1, r4
 8001c98:	4628      	mov	r0, r5
 8001c9a:	f000 fb4d 	bl	8002338 <__smakebuf_r>
 8001c9e:	f9b4 300c 	ldrsh.w	r3, [r4, #12]
 8001ca2:	6921      	ldr	r1, [r4, #16]
 8001ca4:	b29a      	uxth	r2, r3
 8001ca6:	e7c3      	b.n	8001c30 <__swsetup_r+0x20>
 8001ca8:	6b21      	ldr	r1, [r4, #48]	; 0x30
 8001caa:	b151      	cbz	r1, 8001cc2 <__swsetup_r+0xb2>
 8001cac:	f104 0240 	add.w	r2, r4, #64	; 0x40
 8001cb0:	4291      	cmp	r1, r2
 8001cb2:	d004      	beq.n	8001cbe <__swsetup_r+0xae>
 8001cb4:	4628      	mov	r0, r5
 8001cb6:	f000 fa23 	bl	8002100 <_free_r>
 8001cba:	f9b4 300c 	ldrsh.w	r3, [r4, #12]
 8001cbe:	2200      	movs	r2, #0
 8001cc0:	6322      	str	r2, [r4, #48]	; 0x30
 8001cc2:	6921      	ldr	r1, [r4, #16]
 8001cc4:	2200      	movs	r2, #0
 8001cc6:	e9c4 1200 	strd	r1, r2, [r4]
 8001cca:	f023 0324 	bic.w	r3, r3, #36	; 0x24
 8001cce:	e7d7      	b.n	8001c80 <__swsetup_r+0x70>
 8001cd0:	2209      	movs	r2, #9
 8001cd2:	f043 0340 	orr.w	r3, r3, #64	; 0x40
 8001cd6:	602a      	str	r2, [r5, #0]
 8001cd8:	f04f 30ff 	mov.w	r0, #4294967295
 8001cdc:	81a3      	strh	r3, [r4, #12]
 8001cde:	bd38      	pop	{r3, r4, r5, pc}
 8001ce0:	20000128 	.word	0x20000128

08001ce4 <__register_exitproc>:
 8001ce4:	e92d 47f0 	stmdb	sp!, {r4, r5, r6, r7, r8, r9, sl, lr}
 8001ce8:	f8df a07c 	ldr.w	sl, [pc, #124]	; 8001d68 <__register_exitproc+0x84>
 8001cec:	4606      	mov	r6, r0
 8001cee:	f8da 0000 	ldr.w	r0, [sl]
 8001cf2:	4698      	mov	r8, r3
 8001cf4:	460f      	mov	r7, r1
 8001cf6:	4691      	mov	r9, r2
 8001cf8:	f7ff f9ec 	bl	80010d4 <__retarget_lock_acquire_recursive>
 8001cfc:	4b1b      	ldr	r3, [pc, #108]	; (8001d6c <__register_exitproc+0x88>)
 8001cfe:	681b      	ldr	r3, [r3, #0]
 8001d00:	f8d3 4148 	ldr.w	r4, [r3, #328]	; 0x148
 8001d04:	b324      	cbz	r4, 8001d50 <__register_exitproc+0x6c>
 8001d06:	6865      	ldr	r5, [r4, #4]
 8001d08:	2d1f      	cmp	r5, #31
 8001d0a:	dc26      	bgt.n	8001d5a <__register_exitproc+0x76>
 8001d0c:	b95e      	cbnz	r6, 8001d26 <__register_exitproc+0x42>
 8001d0e:	1c6b      	adds	r3, r5, #1
 8001d10:	3502      	adds	r5, #2
 8001d12:	f8da 0000 	ldr.w	r0, [sl]
 8001d16:	6063      	str	r3, [r4, #4]
 8001d18:	f844 7025 	str.w	r7, [r4, r5, lsl #2]
 8001d1c:	f7ff f9e2 	bl	80010e4 <__retarget_lock_release_recursive>
 8001d20:	2000      	movs	r0, #0
 8001d22:	e8bd 87f0 	ldmia.w	sp!, {r4, r5, r6, r7, r8, r9, sl, pc}
 8001d26:	eb04 0185 	add.w	r1, r4, r5, lsl #2
 8001d2a:	2301      	movs	r3, #1
 8001d2c:	f8c1 9088 	str.w	r9, [r1, #136]	; 0x88
 8001d30:	f8d4 2188 	ldr.w	r2, [r4, #392]	; 0x188
 8001d34:	40ab      	lsls	r3, r5
 8001d36:	431a      	orrs	r2, r3
 8001d38:	2e02      	cmp	r6, #2
 8001d3a:	f8c4 2188 	str.w	r2, [r4, #392]	; 0x188
 8001d3e:	f8c1 8108 	str.w	r8, [r1, #264]	; 0x108
 8001d42:	d1e4      	bne.n	8001d0e <__register_exitproc+0x2a>
 8001d44:	f8d4 218c 	ldr.w	r2, [r4, #396]	; 0x18c
 8001d48:	4313      	orrs	r3, r2
 8001d4a:	f8c4 318c 	str.w	r3, [r4, #396]	; 0x18c
 8001d4e:	e7de      	b.n	8001d0e <__register_exitproc+0x2a>
 8001d50:	f503 74a6 	add.w	r4, r3, #332	; 0x14c
 8001d54:	f8c3 4148 	str.w	r4, [r3, #328]	; 0x148
 8001d58:	e7d5      	b.n	8001d06 <__register_exitproc+0x22>
 8001d5a:	f8da 0000 	ldr.w	r0, [sl]
 8001d5e:	f7ff f9c1 	bl	80010e4 <__retarget_lock_release_recursive>
 8001d62:	f04f 30ff 	mov.w	r0, #4294967295
 8001d66:	e7dc      	b.n	8001d22 <__register_exitproc+0x3e>
 8001d68:	20000558 	.word	0x20000558
 8001d6c:	080030e4 	.word	0x080030e4

08001d70 <_close_r>:
 8001d70:	b538      	push	{r3, r4, r5, lr}
 8001d72:	4d07      	ldr	r5, [pc, #28]	; (8001d90 <_close_r+0x20>)
 8001d74:	2200      	movs	r2, #0
 8001d76:	4604      	mov	r4, r0
 8001d78:	4608      	mov	r0, r1
 8001d7a:	602a      	str	r2, [r5, #0]
 8001d7c:	f000 fd98 	bl	80028b0 <_close>
 8001d80:	1c43      	adds	r3, r0, #1
 8001d82:	d000      	beq.n	8001d86 <_close_r+0x16>
 8001d84:	bd38      	pop	{r3, r4, r5, pc}
 8001d86:	682b      	ldr	r3, [r5, #0]
 8001d88:	2b00      	cmp	r3, #0
 8001d8a:	d0fb      	beq.n	8001d84 <_close_r+0x14>
 8001d8c:	6023      	str	r3, [r4, #0]
 8001d8e:	bd38      	pop	{r3, r4, r5, pc}
 8001d90:	20000a5c 	.word	0x20000a5c

08001d94 <_fclose_r>:
 8001d94:	b570      	push	{r4, r5, r6, lr}
 8001d96:	2900      	cmp	r1, #0
 8001d98:	d04b      	beq.n	8001e32 <_fclose_r+0x9e>
 8001d9a:	4606      	mov	r6, r0
 8001d9c:	460c      	mov	r4, r1
 8001d9e:	b110      	cbz	r0, 8001da6 <_fclose_r+0x12>
 8001da0:	6b83      	ldr	r3, [r0, #56]	; 0x38
 8001da2:	2b00      	cmp	r3, #0
 8001da4:	d048      	beq.n	8001e38 <_fclose_r+0xa4>
 8001da6:	6e63      	ldr	r3, [r4, #100]	; 0x64
 8001da8:	07d8      	lsls	r0, r3, #31
 8001daa:	d534      	bpl.n	8001e16 <_fclose_r+0x82>
 8001dac:	f9b4 300c 	ldrsh.w	r3, [r4, #12]
 8001db0:	2b00      	cmp	r3, #0
 8001db2:	d03e      	beq.n	8001e32 <_fclose_r+0x9e>
 8001db4:	4621      	mov	r1, r4
 8001db6:	4630      	mov	r0, r6
 8001db8:	f000 f85a 	bl	8001e70 <__sflush_r>
 8001dbc:	6ae3      	ldr	r3, [r4, #44]	; 0x2c
 8001dbe:	4605      	mov	r5, r0
 8001dc0:	b133      	cbz	r3, 8001dd0 <_fclose_r+0x3c>
 8001dc2:	69e1      	ldr	r1, [r4, #28]
 8001dc4:	4630      	mov	r0, r6
 8001dc6:	4798      	blx	r3
 8001dc8:	2800      	cmp	r0, #0
 8001dca:	bfb8      	it	lt
 8001dcc:	f04f 35ff 	movlt.w	r5, #4294967295
 8001dd0:	89a3      	ldrh	r3, [r4, #12]
 8001dd2:	061a      	lsls	r2, r3, #24
 8001dd4:	d43b      	bmi.n	8001e4e <_fclose_r+0xba>
 8001dd6:	6b21      	ldr	r1, [r4, #48]	; 0x30
 8001dd8:	b141      	cbz	r1, 8001dec <_fclose_r+0x58>
 8001dda:	f104 0340 	add.w	r3, r4, #64	; 0x40
 8001dde:	4299      	cmp	r1, r3
 8001de0:	d002      	beq.n	8001de8 <_fclose_r+0x54>
 8001de2:	4630      	mov	r0, r6
 8001de4:	f000 f98c 	bl	8002100 <_free_r>
 8001de8:	2300      	movs	r3, #0
 8001dea:	6323      	str	r3, [r4, #48]	; 0x30
 8001dec:	6c61      	ldr	r1, [r4, #68]	; 0x44
 8001dee:	b121      	cbz	r1, 8001dfa <_fclose_r+0x66>
 8001df0:	4630      	mov	r0, r6
 8001df2:	f000 f985 	bl	8002100 <_free_r>
 8001df6:	2300      	movs	r3, #0
 8001df8:	6463      	str	r3, [r4, #68]	; 0x44
 8001dfa:	f7fe ff57 	bl	8000cac <__sfp_lock_acquire>
 8001dfe:	6e63      	ldr	r3, [r4, #100]	; 0x64
 8001e00:	2200      	movs	r2, #0
 8001e02:	07db      	lsls	r3, r3, #31
 8001e04:	81a2      	strh	r2, [r4, #12]
 8001e06:	d527      	bpl.n	8001e58 <_fclose_r+0xc4>
 8001e08:	6da0      	ldr	r0, [r4, #88]	; 0x58
 8001e0a:	f7ff f95f 	bl	80010cc <__retarget_lock_close_recursive>
 8001e0e:	f7fe ff53 	bl	8000cb8 <__sfp_lock_release>
 8001e12:	4628      	mov	r0, r5
 8001e14:	bd70      	pop	{r4, r5, r6, pc}
 8001e16:	89a3      	ldrh	r3, [r4, #12]
 8001e18:	0599      	lsls	r1, r3, #22
 8001e1a:	d4cb      	bmi.n	8001db4 <_fclose_r+0x20>
 8001e1c:	6da0      	ldr	r0, [r4, #88]	; 0x58
 8001e1e:	f7ff f959 	bl	80010d4 <__retarget_lock_acquire_recursive>
 8001e22:	f9b4 300c 	ldrsh.w	r3, [r4, #12]
 8001e26:	2b00      	cmp	r3, #0
 8001e28:	d1c4      	bne.n	8001db4 <_fclose_r+0x20>
 8001e2a:	6e65      	ldr	r5, [r4, #100]	; 0x64
 8001e2c:	f015 0501 	ands.w	r5, r5, #1
 8001e30:	d008      	beq.n	8001e44 <_fclose_r+0xb0>
 8001e32:	2500      	movs	r5, #0
 8001e34:	4628      	mov	r0, r5
 8001e36:	bd70      	pop	{r4, r5, r6, pc}
 8001e38:	f7fe fe4e 	bl	8000ad8 <__sinit>
 8001e3c:	6e63      	ldr	r3, [r4, #100]	; 0x64
 8001e3e:	07d8      	lsls	r0, r3, #31
 8001e40:	d4b4      	bmi.n	8001dac <_fclose_r+0x18>
 8001e42:	e7e8      	b.n	8001e16 <_fclose_r+0x82>
 8001e44:	6da0      	ldr	r0, [r4, #88]	; 0x58
 8001e46:	f7ff f94d 	bl	80010e4 <__retarget_lock_release_recursive>
 8001e4a:	4628      	mov	r0, r5
 8001e4c:	bd70      	pop	{r4, r5, r6, pc}
 8001e4e:	6921      	ldr	r1, [r4, #16]
 8001e50:	4630      	mov	r0, r6
 8001e52:	f000 f955 	bl	8002100 <_free_r>
 8001e56:	e7be      	b.n	8001dd6 <_fclose_r+0x42>
 8001e58:	6da0      	ldr	r0, [r4, #88]	; 0x58
 8001e5a:	f7ff f943 	bl	80010e4 <__retarget_lock_release_recursive>
 8001e5e:	e7d3      	b.n	8001e08 <_fclose_r+0x74>

08001e60 <fclose>:
 8001e60:	4b02      	ldr	r3, [pc, #8]	; (8001e6c <fclose+0xc>)
 8001e62:	4601      	mov	r1, r0
 8001e64:	6818      	ldr	r0, [r3, #0]
 8001e66:	f7ff bf95 	b.w	8001d94 <_fclose_r>
 8001e6a:	bf00      	nop
 8001e6c:	20000128 	.word	0x20000128

08001e70 <__sflush_r>:
 8001e70:	f9b1 200c 	ldrsh.w	r2, [r1, #12]
 8001e74:	b5f8      	push	{r3, r4, r5, r6, r7, lr}
 8001e76:	460c      	mov	r4, r1
 8001e78:	0711      	lsls	r1, r2, #28
 8001e7a:	4607      	mov	r7, r0
 8001e7c:	d442      	bmi.n	8001f04 <__sflush_r+0x94>
 8001e7e:	6863      	ldr	r3, [r4, #4]
 8001e80:	f442 6200 	orr.w	r2, r2, #2048	; 0x800
 8001e84:	2b00      	cmp	r3, #0
 8001e86:	81a2      	strh	r2, [r4, #12]
 8001e88:	dd59      	ble.n	8001f3e <__sflush_r+0xce>
 8001e8a:	6aa5      	ldr	r5, [r4, #40]	; 0x28
 8001e8c:	2d00      	cmp	r5, #0
 8001e8e:	d054      	beq.n	8001f3a <__sflush_r+0xca>
 8001e90:	2300      	movs	r3, #0
 8001e92:	683e      	ldr	r6, [r7, #0]
 8001e94:	603b      	str	r3, [r7, #0]
 8001e96:	b293      	uxth	r3, r2
 8001e98:	f412 5280 	ands.w	r2, r2, #4096	; 0x1000
 8001e9c:	d153      	bne.n	8001f46 <__sflush_r+0xd6>
 8001e9e:	69e1      	ldr	r1, [r4, #28]
 8001ea0:	2301      	movs	r3, #1
 8001ea2:	4638      	mov	r0, r7
 8001ea4:	47a8      	blx	r5
 8001ea6:	1c42      	adds	r2, r0, #1
 8001ea8:	d063      	beq.n	8001f72 <__sflush_r+0x102>
 8001eaa:	89a3      	ldrh	r3, [r4, #12]
 8001eac:	6aa5      	ldr	r5, [r4, #40]	; 0x28
 8001eae:	075b      	lsls	r3, r3, #29
 8001eb0:	d505      	bpl.n	8001ebe <__sflush_r+0x4e>
 8001eb2:	6863      	ldr	r3, [r4, #4]
 8001eb4:	1ac0      	subs	r0, r0, r3
 8001eb6:	6b23      	ldr	r3, [r4, #48]	; 0x30
 8001eb8:	b10b      	cbz	r3, 8001ebe <__sflush_r+0x4e>
 8001eba:	6be3      	ldr	r3, [r4, #60]	; 0x3c
 8001ebc:	1ac0      	subs	r0, r0, r3
 8001ebe:	69e1      	ldr	r1, [r4, #28]
 8001ec0:	4602      	mov	r2, r0
 8001ec2:	2300      	movs	r3, #0
 8001ec4:	4638      	mov	r0, r7
 8001ec6:	47a8      	blx	r5
 8001ec8:	1c41      	adds	r1, r0, #1
 8001eca:	d13e      	bne.n	8001f4a <__sflush_r+0xda>
 8001ecc:	683b      	ldr	r3, [r7, #0]
 8001ece:	2b00      	cmp	r3, #0
 8001ed0:	d03b      	beq.n	8001f4a <__sflush_r+0xda>
 8001ed2:	2b1d      	cmp	r3, #29
 8001ed4:	d001      	beq.n	8001eda <__sflush_r+0x6a>
 8001ed6:	2b16      	cmp	r3, #22
 8001ed8:	d152      	bne.n	8001f80 <__sflush_r+0x110>
 8001eda:	89a3      	ldrh	r3, [r4, #12]
 8001edc:	6922      	ldr	r2, [r4, #16]
 8001ede:	6022      	str	r2, [r4, #0]
 8001ee0:	f423 6300 	bic.w	r3, r3, #2048	; 0x800
 8001ee4:	2100      	movs	r1, #0
 8001ee6:	6061      	str	r1, [r4, #4]
 8001ee8:	81a3      	strh	r3, [r4, #12]
 8001eea:	6b21      	ldr	r1, [r4, #48]	; 0x30
 8001eec:	603e      	str	r6, [r7, #0]
 8001eee:	b321      	cbz	r1, 8001f3a <__sflush_r+0xca>
 8001ef0:	f104 0340 	add.w	r3, r4, #64	; 0x40
 8001ef4:	4299      	cmp	r1, r3
 8001ef6:	d002      	beq.n	8001efe <__sflush_r+0x8e>
 8001ef8:	4638      	mov	r0, r7
 8001efa:	f000 f901 	bl	8002100 <_free_r>
 8001efe:	2000      	movs	r0, #0
 8001f00:	6320      	str	r0, [r4, #48]	; 0x30
 8001f02:	bdf8      	pop	{r3, r4, r5, r6, r7, pc}
 8001f04:	6926      	ldr	r6, [r4, #16]
 8001f06:	b1c6      	cbz	r6, 8001f3a <__sflush_r+0xca>
 8001f08:	b293      	uxth	r3, r2
 8001f0a:	6825      	ldr	r5, [r4, #0]
 8001f0c:	6026      	str	r6, [r4, #0]
 8001f0e:	079a      	lsls	r2, r3, #30
 8001f10:	bf0c      	ite	eq
 8001f12:	6963      	ldreq	r3, [r4, #20]
 8001f14:	2300      	movne	r3, #0
 8001f16:	1bad      	subs	r5, r5, r6
 8001f18:	60a3      	str	r3, [r4, #8]
 8001f1a:	e00c      	b.n	8001f36 <__sflush_r+0xc6>
 8001f1c:	f8d4 c024 	ldr.w	ip, [r4, #36]	; 0x24
 8001f20:	69e1      	ldr	r1, [r4, #28]
 8001f22:	462b      	mov	r3, r5
 8001f24:	4632      	mov	r2, r6
 8001f26:	4638      	mov	r0, r7
 8001f28:	47e0      	blx	ip
 8001f2a:	f1b0 0c00 	subs.w	ip, r0, #0
 8001f2e:	eba5 050c 	sub.w	r5, r5, ip
 8001f32:	4466      	add	r6, ip
 8001f34:	dd16      	ble.n	8001f64 <__sflush_r+0xf4>
 8001f36:	2d00      	cmp	r5, #0
 8001f38:	dcf0      	bgt.n	8001f1c <__sflush_r+0xac>
 8001f3a:	2000      	movs	r0, #0
 8001f3c:	bdf8      	pop	{r3, r4, r5, r6, r7, pc}
 8001f3e:	6be3      	ldr	r3, [r4, #60]	; 0x3c
 8001f40:	2b00      	cmp	r3, #0
 8001f42:	dca2      	bgt.n	8001e8a <__sflush_r+0x1a>
 8001f44:	e7f9      	b.n	8001f3a <__sflush_r+0xca>
 8001f46:	6d20      	ldr	r0, [r4, #80]	; 0x50
 8001f48:	e7b1      	b.n	8001eae <__sflush_r+0x3e>
 8001f4a:	f9b4 300c 	ldrsh.w	r3, [r4, #12]
 8001f4e:	6922      	ldr	r2, [r4, #16]
 8001f50:	6022      	str	r2, [r4, #0]
 8001f52:	f423 6300 	bic.w	r3, r3, #2048	; 0x800
 8001f56:	81a3      	strh	r3, [r4, #12]
 8001f58:	2200      	movs	r2, #0
 8001f5a:	04db      	lsls	r3, r3, #19
 8001f5c:	6062      	str	r2, [r4, #4]
 8001f5e:	d5c4      	bpl.n	8001eea <__sflush_r+0x7a>
 8001f60:	6520      	str	r0, [r4, #80]	; 0x50
 8001f62:	e7c2      	b.n	8001eea <__sflush_r+0x7a>
 8001f64:	89a3      	ldrh	r3, [r4, #12]
 8001f66:	f043 0340 	orr.w	r3, r3, #64	; 0x40
 8001f6a:	f04f 30ff 	mov.w	r0, #4294967295
 8001f6e:	81a3      	strh	r3, [r4, #12]
 8001f70:	bdf8      	pop	{r3, r4, r5, r6, r7, pc}
 8001f72:	683b      	ldr	r3, [r7, #0]
 8001f74:	2b00      	cmp	r3, #0
 8001f76:	d098      	beq.n	8001eaa <__sflush_r+0x3a>
 8001f78:	2b1d      	cmp	r3, #29
 8001f7a:	d006      	beq.n	8001f8a <__sflush_r+0x11a>
 8001f7c:	2b16      	cmp	r3, #22
 8001f7e:	d004      	beq.n	8001f8a <__sflush_r+0x11a>
 8001f80:	89a3      	ldrh	r3, [r4, #12]
 8001f82:	f043 0340 	orr.w	r3, r3, #64	; 0x40
 8001f86:	81a3      	strh	r3, [r4, #12]
 8001f88:	bdf8      	pop	{r3, r4, r5, r6, r7, pc}
 8001f8a:	603e      	str	r6, [r7, #0]
 8001f8c:	e7d5      	b.n	8001f3a <__sflush_r+0xca>
 8001f8e:	bf00      	nop

08001f90 <_fflush_r>:
 8001f90:	b538      	push	{r3, r4, r5, lr}
 8001f92:	460c      	mov	r4, r1
 8001f94:	4605      	mov	r5, r0
 8001f96:	b108      	cbz	r0, 8001f9c <_fflush_r+0xc>
 8001f98:	6b83      	ldr	r3, [r0, #56]	; 0x38
 8001f9a:	b1a3      	cbz	r3, 8001fc6 <_fflush_r+0x36>
 8001f9c:	f9b4 000c 	ldrsh.w	r0, [r4, #12]
 8001fa0:	b1b8      	cbz	r0, 8001fd2 <_fflush_r+0x42>
 8001fa2:	6e63      	ldr	r3, [r4, #100]	; 0x64
 8001fa4:	07db      	lsls	r3, r3, #31
 8001fa6:	d401      	bmi.n	8001fac <_fflush_r+0x1c>
 8001fa8:	0581      	lsls	r1, r0, #22
 8001faa:	d515      	bpl.n	8001fd8 <_fflush_r+0x48>
 8001fac:	4628      	mov	r0, r5
 8001fae:	4621      	mov	r1, r4
 8001fb0:	f7ff ff5e 	bl	8001e70 <__sflush_r>
 8001fb4:	6e63      	ldr	r3, [r4, #100]	; 0x64
 8001fb6:	07da      	lsls	r2, r3, #31
 8001fb8:	4605      	mov	r5, r0
 8001fba:	d402      	bmi.n	8001fc2 <_fflush_r+0x32>
 8001fbc:	89a3      	ldrh	r3, [r4, #12]
 8001fbe:	059b      	lsls	r3, r3, #22
 8001fc0:	d50e      	bpl.n	8001fe0 <_fflush_r+0x50>
 8001fc2:	4628      	mov	r0, r5
 8001fc4:	bd38      	pop	{r3, r4, r5, pc}
 8001fc6:	f7fe fd87 	bl	8000ad8 <__sinit>
 8001fca:	f9b4 000c 	ldrsh.w	r0, [r4, #12]
 8001fce:	2800      	cmp	r0, #0
 8001fd0:	d1e7      	bne.n	8001fa2 <_fflush_r+0x12>
 8001fd2:	4605      	mov	r5, r0
 8001fd4:	4628      	mov	r0, r5
 8001fd6:	bd38      	pop	{r3, r4, r5, pc}
 8001fd8:	6da0      	ldr	r0, [r4, #88]	; 0x58
 8001fda:	f7ff f87b 	bl	80010d4 <__retarget_lock_acquire_recursive>
 8001fde:	e7e5      	b.n	8001fac <_fflush_r+0x1c>
 8001fe0:	6da0      	ldr	r0, [r4, #88]	; 0x58
 8001fe2:	f7ff f87f 	bl	80010e4 <__retarget_lock_release_recursive>
 8001fe6:	4628      	mov	r0, r5
 8001fe8:	bd38      	pop	{r3, r4, r5, pc}
 8001fea:	bf00      	nop

08001fec <fflush>:
 8001fec:	b538      	push	{r3, r4, r5, lr}
 8001fee:	b348      	cbz	r0, 8002044 <fflush+0x58>
 8001ff0:	4b18      	ldr	r3, [pc, #96]	; (8002054 <fflush+0x68>)
 8001ff2:	681d      	ldr	r5, [r3, #0]
 8001ff4:	4604      	mov	r4, r0
 8001ff6:	b10d      	cbz	r5, 8001ffc <fflush+0x10>
 8001ff8:	6bab      	ldr	r3, [r5, #56]	; 0x38
 8001ffa:	b1bb      	cbz	r3, 800202c <fflush+0x40>
 8001ffc:	f9b4 000c 	ldrsh.w	r0, [r4, #12]
 8002000:	b188      	cbz	r0, 8002026 <fflush+0x3a>
 8002002:	6e63      	ldr	r3, [r4, #100]	; 0x64
 8002004:	07db      	lsls	r3, r3, #31
 8002006:	d401      	bmi.n	800200c <fflush+0x20>
 8002008:	0581      	lsls	r1, r0, #22
 800200a:	d513      	bpl.n	8002034 <fflush+0x48>
 800200c:	4628      	mov	r0, r5
 800200e:	4621      	mov	r1, r4
 8002010:	f7ff ff2e 	bl	8001e70 <__sflush_r>
 8002014:	6e63      	ldr	r3, [r4, #100]	; 0x64
 8002016:	07da      	lsls	r2, r3, #31
 8002018:	4605      	mov	r5, r0
 800201a:	d402      	bmi.n	8002022 <fflush+0x36>
 800201c:	89a3      	ldrh	r3, [r4, #12]
 800201e:	059b      	lsls	r3, r3, #22
 8002020:	d50c      	bpl.n	800203c <fflush+0x50>
 8002022:	4628      	mov	r0, r5
 8002024:	bd38      	pop	{r3, r4, r5, pc}
 8002026:	4605      	mov	r5, r0
 8002028:	4628      	mov	r0, r5
 800202a:	bd38      	pop	{r3, r4, r5, pc}
 800202c:	4628      	mov	r0, r5
 800202e:	f7fe fd53 	bl	8000ad8 <__sinit>
 8002032:	e7e3      	b.n	8001ffc <fflush+0x10>
 8002034:	6da0      	ldr	r0, [r4, #88]	; 0x58
 8002036:	f7ff f84d 	bl	80010d4 <__retarget_lock_acquire_recursive>
 800203a:	e7e7      	b.n	800200c <fflush+0x20>
 800203c:	6da0      	ldr	r0, [r4, #88]	; 0x58
 800203e:	f7ff f851 	bl	80010e4 <__retarget_lock_release_recursive>
 8002042:	e7ee      	b.n	8002022 <fflush+0x36>
 8002044:	4b04      	ldr	r3, [pc, #16]	; (8002058 <fflush+0x6c>)
 8002046:	4905      	ldr	r1, [pc, #20]	; (800205c <fflush+0x70>)
 8002048:	6818      	ldr	r0, [r3, #0]
 800204a:	e8bd 4038 	ldmia.w	sp!, {r3, r4, r5, lr}
 800204e:	f7ff b813 	b.w	8001078 <_fwalk_reent>
 8002052:	bf00      	nop
 8002054:	20000128 	.word	0x20000128
 8002058:	080030e4 	.word	0x080030e4
 800205c:	08001f91 	.word	0x08001f91

08002060 <_malloc_trim_r>:
 8002060:	b5f8      	push	{r3, r4, r5, r6, r7, lr}
 8002062:	4f24      	ldr	r7, [pc, #144]	; (80020f4 <_malloc_trim_r+0x94>)
 8002064:	460c      	mov	r4, r1
 8002066:	4606      	mov	r6, r0
 8002068:	f7ff fb6a 	bl	8001740 <__malloc_lock>
 800206c:	68ba      	ldr	r2, [r7, #8]
 800206e:	6855      	ldr	r5, [r2, #4]
 8002070:	f5c4 637e 	rsb	r3, r4, #4064	; 0xfe0
 8002074:	330f      	adds	r3, #15
 8002076:	f025 0503 	bic.w	r5, r5, #3
 800207a:	442b      	add	r3, r5
 800207c:	f423 637f 	bic.w	r3, r3, #4080	; 0xff0
 8002080:	f023 030f 	bic.w	r3, r3, #15
 8002084:	f5a3 5480 	sub.w	r4, r3, #4096	; 0x1000
 8002088:	f5b4 5f80 	cmp.w	r4, #4096	; 0x1000
 800208c:	db07      	blt.n	800209e <_malloc_trim_r+0x3e>
 800208e:	2100      	movs	r1, #0
 8002090:	4630      	mov	r0, r6
 8002092:	f7ff fd4d 	bl	8001b30 <_sbrk_r>
 8002096:	68bb      	ldr	r3, [r7, #8]
 8002098:	442b      	add	r3, r5
 800209a:	4298      	cmp	r0, r3
 800209c:	d004      	beq.n	80020a8 <_malloc_trim_r+0x48>
 800209e:	4630      	mov	r0, r6
 80020a0:	f7ff fb54 	bl	800174c <__malloc_unlock>
 80020a4:	2000      	movs	r0, #0
 80020a6:	bdf8      	pop	{r3, r4, r5, r6, r7, pc}
 80020a8:	4261      	negs	r1, r4
 80020aa:	4630      	mov	r0, r6
 80020ac:	f7ff fd40 	bl	8001b30 <_sbrk_r>
 80020b0:	3001      	adds	r0, #1
 80020b2:	d00d      	beq.n	80020d0 <_malloc_trim_r+0x70>
 80020b4:	4a10      	ldr	r2, [pc, #64]	; (80020f8 <_malloc_trim_r+0x98>)
 80020b6:	68bb      	ldr	r3, [r7, #8]
 80020b8:	1b2d      	subs	r5, r5, r4
 80020ba:	f045 0501 	orr.w	r5, r5, #1
 80020be:	605d      	str	r5, [r3, #4]
 80020c0:	6813      	ldr	r3, [r2, #0]
 80020c2:	4630      	mov	r0, r6
 80020c4:	1b1b      	subs	r3, r3, r4
 80020c6:	6013      	str	r3, [r2, #0]
 80020c8:	f7ff fb40 	bl	800174c <__malloc_unlock>
 80020cc:	2001      	movs	r0, #1
 80020ce:	bdf8      	pop	{r3, r4, r5, r6, r7, pc}
 80020d0:	2100      	movs	r1, #0
 80020d2:	4630      	mov	r0, r6
 80020d4:	f7ff fd2c 	bl	8001b30 <_sbrk_r>
 80020d8:	68ba      	ldr	r2, [r7, #8]
 80020da:	1a83      	subs	r3, r0, r2
 80020dc:	2b0f      	cmp	r3, #15
 80020de:	ddde      	ble.n	800209e <_malloc_trim_r+0x3e>
 80020e0:	f043 0301 	orr.w	r3, r3, #1
 80020e4:	6053      	str	r3, [r2, #4]
 80020e6:	4b05      	ldr	r3, [pc, #20]	; (80020fc <_malloc_trim_r+0x9c>)
 80020e8:	4903      	ldr	r1, [pc, #12]	; (80020f8 <_malloc_trim_r+0x98>)
 80020ea:	681b      	ldr	r3, [r3, #0]
 80020ec:	1ac0      	subs	r0, r0, r3
 80020ee:	6008      	str	r0, [r1, #0]
 80020f0:	e7d5      	b.n	800209e <_malloc_trim_r+0x3e>
 80020f2:	bf00      	nop
 80020f4:	2000055c 	.word	0x2000055c
 80020f8:	20000a28 	.word	0x20000a28
 80020fc:	20000964 	.word	0x20000964

08002100 <_free_r>:
 8002100:	2900      	cmp	r1, #0
 8002102:	d061      	beq.n	80021c8 <_free_r+0xc8>
 8002104:	b5f8      	push	{r3, r4, r5, r6, r7, lr}
 8002106:	460c      	mov	r4, r1
 8002108:	4606      	mov	r6, r0
 800210a:	f7ff fb19 	bl	8001740 <__malloc_lock>
 800210e:	f854 2c04 	ldr.w	r2, [r4, #-4]
 8002112:	4f7b      	ldr	r7, [pc, #492]	; (8002300 <_free_r+0x200>)
 8002114:	f1a4 0508 	sub.w	r5, r4, #8
 8002118:	f022 0101 	bic.w	r1, r2, #1
 800211c:	eb05 0c01 	add.w	ip, r5, r1
 8002120:	68b8      	ldr	r0, [r7, #8]
 8002122:	f8dc 3004 	ldr.w	r3, [ip, #4]
 8002126:	4560      	cmp	r0, ip
 8002128:	f023 0303 	bic.w	r3, r3, #3
 800212c:	f000 808b 	beq.w	8002246 <_free_r+0x146>
 8002130:	07d2      	lsls	r2, r2, #31
 8002132:	f8cc 3004 	str.w	r3, [ip, #4]
 8002136:	d432      	bmi.n	800219e <_free_r+0x9e>
 8002138:	f854 2c08 	ldr.w	r2, [r4, #-8]
 800213c:	1aad      	subs	r5, r5, r2
 800213e:	4411      	add	r1, r2
 8002140:	68aa      	ldr	r2, [r5, #8]
 8002142:	f107 0008 	add.w	r0, r7, #8
 8002146:	4282      	cmp	r2, r0
 8002148:	d06a      	beq.n	8002220 <_free_r+0x120>
 800214a:	eb0c 0403 	add.w	r4, ip, r3
 800214e:	f8d4 e004 	ldr.w	lr, [r4, #4]
 8002152:	68ec      	ldr	r4, [r5, #12]
 8002154:	60d4      	str	r4, [r2, #12]
 8002156:	f01e 0f01 	tst.w	lr, #1
 800215a:	60a2      	str	r2, [r4, #8]
 800215c:	f000 8097 	beq.w	800228e <_free_r+0x18e>
 8002160:	f041 0301 	orr.w	r3, r1, #1
 8002164:	606b      	str	r3, [r5, #4]
 8002166:	f8cc 1000 	str.w	r1, [ip]
 800216a:	f5b1 7f00 	cmp.w	r1, #512	; 0x200
 800216e:	d235      	bcs.n	80021dc <_free_r+0xdc>
 8002170:	687a      	ldr	r2, [r7, #4]
 8002172:	08cb      	lsrs	r3, r1, #3
 8002174:	0948      	lsrs	r0, r1, #5
 8002176:	2101      	movs	r1, #1
 8002178:	3301      	adds	r3, #1
 800217a:	4081      	lsls	r1, r0
 800217c:	4311      	orrs	r1, r2
 800217e:	6079      	str	r1, [r7, #4]
 8002180:	eb07 02c3 	add.w	r2, r7, r3, lsl #3
 8002184:	f857 1033 	ldr.w	r1, [r7, r3, lsl #3]
 8002188:	3a08      	subs	r2, #8
 800218a:	e9c5 1202 	strd	r1, r2, [r5, #8]
 800218e:	f847 5033 	str.w	r5, [r7, r3, lsl #3]
 8002192:	60cd      	str	r5, [r1, #12]
 8002194:	4630      	mov	r0, r6
 8002196:	e8bd 40f8 	ldmia.w	sp!, {r3, r4, r5, r6, r7, lr}
 800219a:	f7ff bad7 	b.w	800174c <__malloc_unlock>
 800219e:	eb0c 0203 	add.w	r2, ip, r3
 80021a2:	6852      	ldr	r2, [r2, #4]
 80021a4:	07d0      	lsls	r0, r2, #31
 80021a6:	d410      	bmi.n	80021ca <_free_r+0xca>
 80021a8:	4419      	add	r1, r3
 80021aa:	f107 0008 	add.w	r0, r7, #8
 80021ae:	f8dc 3008 	ldr.w	r3, [ip, #8]
 80021b2:	4283      	cmp	r3, r0
 80021b4:	d073      	beq.n	800229e <_free_r+0x19e>
 80021b6:	f8dc 200c 	ldr.w	r2, [ip, #12]
 80021ba:	60da      	str	r2, [r3, #12]
 80021bc:	6093      	str	r3, [r2, #8]
 80021be:	f041 0301 	orr.w	r3, r1, #1
 80021c2:	606b      	str	r3, [r5, #4]
 80021c4:	5069      	str	r1, [r5, r1]
 80021c6:	e7d0      	b.n	800216a <_free_r+0x6a>
 80021c8:	4770      	bx	lr
 80021ca:	f041 0301 	orr.w	r3, r1, #1
 80021ce:	f5b1 7f00 	cmp.w	r1, #512	; 0x200
 80021d2:	f844 3c04 	str.w	r3, [r4, #-4]
 80021d6:	f8cc 1000 	str.w	r1, [ip]
 80021da:	d3c9      	bcc.n	8002170 <_free_r+0x70>
 80021dc:	f5b1 6f20 	cmp.w	r1, #2560	; 0xa00
 80021e0:	ea4f 2351 	mov.w	r3, r1, lsr #9
 80021e4:	d248      	bcs.n	8002278 <_free_r+0x178>
 80021e6:	098b      	lsrs	r3, r1, #6
 80021e8:	f103 0039 	add.w	r0, r3, #57	; 0x39
 80021ec:	f103 0238 	add.w	r2, r3, #56	; 0x38
 80021f0:	00c3      	lsls	r3, r0, #3
 80021f2:	18f8      	adds	r0, r7, r3
 80021f4:	58fb      	ldr	r3, [r7, r3]
 80021f6:	3808      	subs	r0, #8
 80021f8:	4298      	cmp	r0, r3
 80021fa:	d059      	beq.n	80022b0 <_free_r+0x1b0>
 80021fc:	685a      	ldr	r2, [r3, #4]
 80021fe:	f022 0203 	bic.w	r2, r2, #3
 8002202:	428a      	cmp	r2, r1
 8002204:	d902      	bls.n	800220c <_free_r+0x10c>
 8002206:	689b      	ldr	r3, [r3, #8]
 8002208:	4298      	cmp	r0, r3
 800220a:	d1f7      	bne.n	80021fc <_free_r+0xfc>
 800220c:	68d8      	ldr	r0, [r3, #12]
 800220e:	e9c5 3002 	strd	r3, r0, [r5, #8]
 8002212:	6085      	str	r5, [r0, #8]
 8002214:	60dd      	str	r5, [r3, #12]
 8002216:	4630      	mov	r0, r6
 8002218:	e8bd 40f8 	ldmia.w	sp!, {r3, r4, r5, r6, r7, lr}
 800221c:	f7ff ba96 	b.w	800174c <__malloc_unlock>
 8002220:	eb0c 0203 	add.w	r2, ip, r3
 8002224:	6852      	ldr	r2, [r2, #4]
 8002226:	07d2      	lsls	r2, r2, #31
 8002228:	d463      	bmi.n	80022f2 <_free_r+0x1f2>
 800222a:	440b      	add	r3, r1
 800222c:	e9dc 1202 	ldrd	r1, r2, [ip, #8]
 8002230:	60ca      	str	r2, [r1, #12]
 8002232:	6091      	str	r1, [r2, #8]
 8002234:	f043 0201 	orr.w	r2, r3, #1
 8002238:	606a      	str	r2, [r5, #4]
 800223a:	4630      	mov	r0, r6
 800223c:	50eb      	str	r3, [r5, r3]
 800223e:	e8bd 40f8 	ldmia.w	sp!, {r3, r4, r5, r6, r7, lr}
 8002242:	f7ff ba83 	b.w	800174c <__malloc_unlock>
 8002246:	440b      	add	r3, r1
 8002248:	07d1      	lsls	r1, r2, #31
 800224a:	d407      	bmi.n	800225c <_free_r+0x15c>
 800224c:	f854 2c08 	ldr.w	r2, [r4, #-8]
 8002250:	1aad      	subs	r5, r5, r2
 8002252:	4413      	add	r3, r2
 8002254:	e9d5 1202 	ldrd	r1, r2, [r5, #8]
 8002258:	60ca      	str	r2, [r1, #12]
 800225a:	6091      	str	r1, [r2, #8]
 800225c:	f043 0201 	orr.w	r2, r3, #1
 8002260:	606a      	str	r2, [r5, #4]
 8002262:	4a28      	ldr	r2, [pc, #160]	; (8002304 <_free_r+0x204>)
 8002264:	60bd      	str	r5, [r7, #8]
 8002266:	6812      	ldr	r2, [r2, #0]
 8002268:	429a      	cmp	r2, r3
 800226a:	d893      	bhi.n	8002194 <_free_r+0x94>
 800226c:	4b26      	ldr	r3, [pc, #152]	; (8002308 <_free_r+0x208>)
 800226e:	4630      	mov	r0, r6
 8002270:	6819      	ldr	r1, [r3, #0]
 8002272:	f7ff fef5 	bl	8002060 <_malloc_trim_r>
 8002276:	e78d      	b.n	8002194 <_free_r+0x94>
 8002278:	2b14      	cmp	r3, #20
 800227a:	d90a      	bls.n	8002292 <_free_r+0x192>
 800227c:	2b54      	cmp	r3, #84	; 0x54
 800227e:	d81f      	bhi.n	80022c0 <_free_r+0x1c0>
 8002280:	0b0b      	lsrs	r3, r1, #12
 8002282:	f103 006f 	add.w	r0, r3, #111	; 0x6f
 8002286:	f103 026e 	add.w	r2, r3, #110	; 0x6e
 800228a:	00c3      	lsls	r3, r0, #3
 800228c:	e7b1      	b.n	80021f2 <_free_r+0xf2>
 800228e:	4419      	add	r1, r3
 8002290:	e78d      	b.n	80021ae <_free_r+0xae>
 8002292:	f103 005c 	add.w	r0, r3, #92	; 0x5c
 8002296:	f103 025b 	add.w	r2, r3, #91	; 0x5b
 800229a:	00c3      	lsls	r3, r0, #3
 800229c:	e7a9      	b.n	80021f2 <_free_r+0xf2>
 800229e:	f041 0301 	orr.w	r3, r1, #1
 80022a2:	e9c7 5504 	strd	r5, r5, [r7, #16]
 80022a6:	e9c5 0002 	strd	r0, r0, [r5, #8]
 80022aa:	606b      	str	r3, [r5, #4]
 80022ac:	5069      	str	r1, [r5, r1]
 80022ae:	e771      	b.n	8002194 <_free_r+0x94>
 80022b0:	6879      	ldr	r1, [r7, #4]
 80022b2:	1092      	asrs	r2, r2, #2
 80022b4:	2401      	movs	r4, #1
 80022b6:	fa04 f202 	lsl.w	r2, r4, r2
 80022ba:	430a      	orrs	r2, r1
 80022bc:	607a      	str	r2, [r7, #4]
 80022be:	e7a6      	b.n	800220e <_free_r+0x10e>
 80022c0:	f5b3 7faa 	cmp.w	r3, #340	; 0x154
 80022c4:	d806      	bhi.n	80022d4 <_free_r+0x1d4>
 80022c6:	0bcb      	lsrs	r3, r1, #15
 80022c8:	f103 0078 	add.w	r0, r3, #120	; 0x78
 80022cc:	f103 0277 	add.w	r2, r3, #119	; 0x77
 80022d0:	00c3      	lsls	r3, r0, #3
 80022d2:	e78e      	b.n	80021f2 <_free_r+0xf2>
 80022d4:	f240 5254 	movw	r2, #1364	; 0x554
 80022d8:	4293      	cmp	r3, r2
 80022da:	d806      	bhi.n	80022ea <_free_r+0x1ea>
 80022dc:	0c8b      	lsrs	r3, r1, #18
 80022de:	f103 007d 	add.w	r0, r3, #125	; 0x7d
 80022e2:	f103 027c 	add.w	r2, r3, #124	; 0x7c
 80022e6:	00c3      	lsls	r3, r0, #3
 80022e8:	e783      	b.n	80021f2 <_free_r+0xf2>
 80022ea:	f44f 737e 	mov.w	r3, #1016	; 0x3f8
 80022ee:	227e      	movs	r2, #126	; 0x7e
 80022f0:	e77f      	b.n	80021f2 <_free_r+0xf2>
 80022f2:	f041 0301 	orr.w	r3, r1, #1
 80022f6:	606b      	str	r3, [r5, #4]
 80022f8:	f8cc 1000 	str.w	r1, [ip]
 80022fc:	e74a      	b.n	8002194 <_free_r+0x94>
 80022fe:	bf00      	nop
 8002300:	2000055c 	.word	0x2000055c
 8002304:	20000968 	.word	0x20000968
 8002308:	20000a58 	.word	0x20000a58

0800230c <_lseek_r>:
 800230c:	b538      	push	{r3, r4, r5, lr}
 800230e:	460c      	mov	r4, r1
 8002310:	4d08      	ldr	r5, [pc, #32]	; (8002334 <_lseek_r+0x28>)
 8002312:	4684      	mov	ip, r0
 8002314:	4611      	mov	r1, r2
 8002316:	4620      	mov	r0, r4
 8002318:	461a      	mov	r2, r3
 800231a:	2300      	movs	r3, #0
 800231c:	602b      	str	r3, [r5, #0]
 800231e:	4664      	mov	r4, ip
 8002320:	f000 fa2c 	bl	800277c <_lseek>
 8002324:	1c43      	adds	r3, r0, #1
 8002326:	d000      	beq.n	800232a <_lseek_r+0x1e>
 8002328:	bd38      	pop	{r3, r4, r5, pc}
 800232a:	682b      	ldr	r3, [r5, #0]
 800232c:	2b00      	cmp	r3, #0
 800232e:	d0fb      	beq.n	8002328 <_lseek_r+0x1c>
 8002330:	6023      	str	r3, [r4, #0]
 8002332:	bd38      	pop	{r3, r4, r5, pc}
 8002334:	20000a5c 	.word	0x20000a5c

08002338 <__smakebuf_r>:
 8002338:	e92d 41f0 	stmdb	sp!, {r4, r5, r6, r7, r8, lr}
 800233c:	898b      	ldrh	r3, [r1, #12]
 800233e:	460c      	mov	r4, r1
 8002340:	0799      	lsls	r1, r3, #30
 8002342:	b096      	sub	sp, #88	; 0x58
 8002344:	d508      	bpl.n	8002358 <__smakebuf_r+0x20>
 8002346:	f104 0343 	add.w	r3, r4, #67	; 0x43
 800234a:	2201      	movs	r2, #1
 800234c:	e9c4 3204 	strd	r3, r2, [r4, #16]
 8002350:	6023      	str	r3, [r4, #0]
 8002352:	b016      	add	sp, #88	; 0x58
 8002354:	e8bd 81f0 	ldmia.w	sp!, {r4, r5, r6, r7, r8, pc}
 8002358:	f9b4 100e 	ldrsh.w	r1, [r4, #14]
 800235c:	2900      	cmp	r1, #0
 800235e:	4606      	mov	r6, r0
 8002360:	db27      	blt.n	80023b2 <__smakebuf_r+0x7a>
 8002362:	466a      	mov	r2, sp
 8002364:	f000 f90a 	bl	800257c <_fstat_r>
 8002368:	2800      	cmp	r0, #0
 800236a:	db21      	blt.n	80023b0 <__smakebuf_r+0x78>
 800236c:	9d01      	ldr	r5, [sp, #4]
 800236e:	f405 4570 	and.w	r5, r5, #61440	; 0xf000
 8002372:	f5a5 5500 	sub.w	r5, r5, #8192	; 0x2000
 8002376:	fab5 f585 	clz	r5, r5
 800237a:	f44f 6880 	mov.w	r8, #1024	; 0x400
 800237e:	096d      	lsrs	r5, r5, #5
 8002380:	f44f 6700 	mov.w	r7, #2048	; 0x800
 8002384:	4641      	mov	r1, r8
 8002386:	4630      	mov	r0, r6
 8002388:	f7fe feae 	bl	80010e8 <_malloc_r>
 800238c:	f9b4 300c 	ldrsh.w	r3, [r4, #12]
 8002390:	b1f0      	cbz	r0, 80023d0 <__smakebuf_r+0x98>
 8002392:	4a20      	ldr	r2, [pc, #128]	; (8002414 <__smakebuf_r+0xdc>)
 8002394:	63f2      	str	r2, [r6, #60]	; 0x3c
 8002396:	f043 0380 	orr.w	r3, r3, #128	; 0x80
 800239a:	f8c4 8014 	str.w	r8, [r4, #20]
 800239e:	81a3      	strh	r3, [r4, #12]
 80023a0:	6020      	str	r0, [r4, #0]
 80023a2:	6120      	str	r0, [r4, #16]
 80023a4:	bb35      	cbnz	r5, 80023f4 <__smakebuf_r+0xbc>
 80023a6:	433b      	orrs	r3, r7
 80023a8:	81a3      	strh	r3, [r4, #12]
 80023aa:	b016      	add	sp, #88	; 0x58
 80023ac:	e8bd 81f0 	ldmia.w	sp!, {r4, r5, r6, r7, r8, pc}
 80023b0:	89a3      	ldrh	r3, [r4, #12]
 80023b2:	f013 0580 	ands.w	r5, r3, #128	; 0x80
 80023b6:	d019      	beq.n	80023ec <__smakebuf_r+0xb4>
 80023b8:	f04f 0840 	mov.w	r8, #64	; 0x40
 80023bc:	4641      	mov	r1, r8
 80023be:	4630      	mov	r0, r6
 80023c0:	f7fe fe92 	bl	80010e8 <_malloc_r>
 80023c4:	2500      	movs	r5, #0
 80023c6:	f9b4 300c 	ldrsh.w	r3, [r4, #12]
 80023ca:	462f      	mov	r7, r5
 80023cc:	2800      	cmp	r0, #0
 80023ce:	d1e0      	bne.n	8002392 <__smakebuf_r+0x5a>
 80023d0:	059a      	lsls	r2, r3, #22
 80023d2:	d4be      	bmi.n	8002352 <__smakebuf_r+0x1a>
 80023d4:	f023 0303 	bic.w	r3, r3, #3
 80023d8:	f104 0243 	add.w	r2, r4, #67	; 0x43
 80023dc:	f043 0302 	orr.w	r3, r3, #2
 80023e0:	2101      	movs	r1, #1
 80023e2:	e9c4 2104 	strd	r2, r1, [r4, #16]
 80023e6:	81a3      	strh	r3, [r4, #12]
 80023e8:	6022      	str	r2, [r4, #0]
 80023ea:	e7b2      	b.n	8002352 <__smakebuf_r+0x1a>
 80023ec:	f44f 6880 	mov.w	r8, #1024	; 0x400
 80023f0:	462f      	mov	r7, r5
 80023f2:	e7c7      	b.n	8002384 <__smakebuf_r+0x4c>
 80023f4:	f9b4 100e 	ldrsh.w	r1, [r4, #14]
 80023f8:	4630      	mov	r0, r6
 80023fa:	f000 f8d5 	bl	80025a8 <_isatty_r>
 80023fe:	b910      	cbnz	r0, 8002406 <__smakebuf_r+0xce>
 8002400:	f9b4 300c 	ldrsh.w	r3, [r4, #12]
 8002404:	e7cf      	b.n	80023a6 <__smakebuf_r+0x6e>
 8002406:	89a3      	ldrh	r3, [r4, #12]
 8002408:	f023 0303 	bic.w	r3, r3, #3
 800240c:	f043 0301 	orr.w	r3, r3, #1
 8002410:	b21b      	sxth	r3, r3
 8002412:	e7c8      	b.n	80023a6 <__smakebuf_r+0x6e>
 8002414:	08000a51 	.word	0x08000a51

08002418 <__swhatbuf_r>:
 8002418:	b570      	push	{r4, r5, r6, lr}
 800241a:	460c      	mov	r4, r1
 800241c:	f9b1 100e 	ldrsh.w	r1, [r1, #14]
 8002420:	2900      	cmp	r1, #0
 8002422:	b096      	sub	sp, #88	; 0x58
 8002424:	4615      	mov	r5, r2
 8002426:	461e      	mov	r6, r3
 8002428:	db14      	blt.n	8002454 <__swhatbuf_r+0x3c>
 800242a:	466a      	mov	r2, sp
 800242c:	f000 f8a6 	bl	800257c <_fstat_r>
 8002430:	2800      	cmp	r0, #0
 8002432:	db0f      	blt.n	8002454 <__swhatbuf_r+0x3c>
 8002434:	9a01      	ldr	r2, [sp, #4]
 8002436:	f402 4270 	and.w	r2, r2, #61440	; 0xf000
 800243a:	f5a2 5200 	sub.w	r2, r2, #8192	; 0x2000
 800243e:	fab2 f282 	clz	r2, r2
 8002442:	f44f 6380 	mov.w	r3, #1024	; 0x400
 8002446:	0952      	lsrs	r2, r2, #5
 8002448:	f44f 6000 	mov.w	r0, #2048	; 0x800
 800244c:	6032      	str	r2, [r6, #0]
 800244e:	602b      	str	r3, [r5, #0]
 8002450:	b016      	add	sp, #88	; 0x58
 8002452:	bd70      	pop	{r4, r5, r6, pc}
 8002454:	f9b4 100c 	ldrsh.w	r1, [r4, #12]
 8002458:	2300      	movs	r3, #0
 800245a:	f011 0080 	ands.w	r0, r1, #128	; 0x80
 800245e:	6033      	str	r3, [r6, #0]
 8002460:	d004      	beq.n	800246c <__swhatbuf_r+0x54>
 8002462:	2240      	movs	r2, #64	; 0x40
 8002464:	4618      	mov	r0, r3
 8002466:	602a      	str	r2, [r5, #0]
 8002468:	b016      	add	sp, #88	; 0x58
 800246a:	bd70      	pop	{r4, r5, r6, pc}
 800246c:	f44f 6380 	mov.w	r3, #1024	; 0x400
 8002470:	602b      	str	r3, [r5, #0]
 8002472:	b016      	add	sp, #88	; 0x58
 8002474:	bd70      	pop	{r4, r5, r6, pc}
 8002476:	bf00      	nop

08002478 <_read_r>:
 8002478:	b538      	push	{r3, r4, r5, lr}
 800247a:	460c      	mov	r4, r1
 800247c:	4d08      	ldr	r5, [pc, #32]	; (80024a0 <_read_r+0x28>)
 800247e:	4684      	mov	ip, r0
 8002480:	4611      	mov	r1, r2
 8002482:	4620      	mov	r0, r4
 8002484:	461a      	mov	r2, r3
 8002486:	2300      	movs	r3, #0
 8002488:	602b      	str	r3, [r5, #0]
 800248a:	4664      	mov	r4, ip
 800248c:	f000 f8bc 	bl	8002608 <_read>
 8002490:	1c43      	adds	r3, r0, #1
 8002492:	d000      	beq.n	8002496 <_read_r+0x1e>
 8002494:	bd38      	pop	{r3, r4, r5, pc}
 8002496:	682b      	ldr	r3, [r5, #0]
 8002498:	2b00      	cmp	r3, #0
 800249a:	d0fb      	beq.n	8002494 <_read_r+0x1c>
 800249c:	6023      	str	r3, [r4, #0]
 800249e:	bd38      	pop	{r3, r4, r5, pc}
 80024a0:	20000a5c 	.word	0x20000a5c

080024a4 <cleanup_glue>:
 80024a4:	e92d 41f0 	stmdb	sp!, {r4, r5, r6, r7, r8, lr}
 80024a8:	680e      	ldr	r6, [r1, #0]
 80024aa:	460c      	mov	r4, r1
 80024ac:	4605      	mov	r5, r0
 80024ae:	b1be      	cbz	r6, 80024e0 <cleanup_glue+0x3c>
 80024b0:	6837      	ldr	r7, [r6, #0]
 80024b2:	b18f      	cbz	r7, 80024d8 <cleanup_glue+0x34>
 80024b4:	f8d7 8000 	ldr.w	r8, [r7]
 80024b8:	f1b8 0f00 	cmp.w	r8, #0
 80024bc:	d008      	beq.n	80024d0 <cleanup_glue+0x2c>
 80024be:	f8d8 1000 	ldr.w	r1, [r8]
 80024c2:	b109      	cbz	r1, 80024c8 <cleanup_glue+0x24>
 80024c4:	f7ff ffee 	bl	80024a4 <cleanup_glue>
 80024c8:	4641      	mov	r1, r8
 80024ca:	4628      	mov	r0, r5
 80024cc:	f7ff fe18 	bl	8002100 <_free_r>
 80024d0:	4639      	mov	r1, r7
 80024d2:	4628      	mov	r0, r5
 80024d4:	f7ff fe14 	bl	8002100 <_free_r>
 80024d8:	4631      	mov	r1, r6
 80024da:	4628      	mov	r0, r5
 80024dc:	f7ff fe10 	bl	8002100 <_free_r>
 80024e0:	4621      	mov	r1, r4
 80024e2:	4628      	mov	r0, r5
 80024e4:	e8bd 41f0 	ldmia.w	sp!, {r4, r5, r6, r7, r8, lr}
 80024e8:	f7ff be0a 	b.w	8002100 <_free_r>

080024ec <_reclaim_reent>:
 80024ec:	4b22      	ldr	r3, [pc, #136]	; (8002578 <_reclaim_reent+0x8c>)
 80024ee:	681b      	ldr	r3, [r3, #0]
 80024f0:	4283      	cmp	r3, r0
 80024f2:	d040      	beq.n	8002576 <_reclaim_reent+0x8a>
 80024f4:	6cc1      	ldr	r1, [r0, #76]	; 0x4c
 80024f6:	b570      	push	{r4, r5, r6, lr}
 80024f8:	4605      	mov	r5, r0
 80024fa:	b181      	cbz	r1, 800251e <_reclaim_reent+0x32>
 80024fc:	2600      	movs	r6, #0
 80024fe:	598c      	ldr	r4, [r1, r6]
 8002500:	b13c      	cbz	r4, 8002512 <_reclaim_reent+0x26>
 8002502:	4621      	mov	r1, r4
 8002504:	6824      	ldr	r4, [r4, #0]
 8002506:	4628      	mov	r0, r5
 8002508:	f7ff fdfa 	bl	8002100 <_free_r>
 800250c:	2c00      	cmp	r4, #0
 800250e:	d1f8      	bne.n	8002502 <_reclaim_reent+0x16>
 8002510:	6ce9      	ldr	r1, [r5, #76]	; 0x4c
 8002512:	3604      	adds	r6, #4
 8002514:	2e80      	cmp	r6, #128	; 0x80
 8002516:	d1f2      	bne.n	80024fe <_reclaim_reent+0x12>
 8002518:	4628      	mov	r0, r5
 800251a:	f7ff fdf1 	bl	8002100 <_free_r>
 800251e:	6c29      	ldr	r1, [r5, #64]	; 0x40
 8002520:	b111      	cbz	r1, 8002528 <_reclaim_reent+0x3c>
 8002522:	4628      	mov	r0, r5
 8002524:	f7ff fdec 	bl	8002100 <_free_r>
 8002528:	f8d5 4148 	ldr.w	r4, [r5, #328]	; 0x148
 800252c:	b154      	cbz	r4, 8002544 <_reclaim_reent+0x58>
 800252e:	f505 76a6 	add.w	r6, r5, #332	; 0x14c
 8002532:	42b4      	cmp	r4, r6
 8002534:	d006      	beq.n	8002544 <_reclaim_reent+0x58>
 8002536:	4621      	mov	r1, r4
 8002538:	6824      	ldr	r4, [r4, #0]
 800253a:	4628      	mov	r0, r5
 800253c:	f7ff fde0 	bl	8002100 <_free_r>
 8002540:	42a6      	cmp	r6, r4
 8002542:	d1f8      	bne.n	8002536 <_reclaim_reent+0x4a>
 8002544:	6d69      	ldr	r1, [r5, #84]	; 0x54
 8002546:	b111      	cbz	r1, 800254e <_reclaim_reent+0x62>
 8002548:	4628      	mov	r0, r5
 800254a:	f7ff fdd9 	bl	8002100 <_free_r>
 800254e:	6bab      	ldr	r3, [r5, #56]	; 0x38
 8002550:	b183      	cbz	r3, 8002574 <_reclaim_reent+0x88>
 8002552:	6beb      	ldr	r3, [r5, #60]	; 0x3c
 8002554:	4628      	mov	r0, r5
 8002556:	4798      	blx	r3
 8002558:	f8d5 42e0 	ldr.w	r4, [r5, #736]	; 0x2e0
 800255c:	b154      	cbz	r4, 8002574 <_reclaim_reent+0x88>
 800255e:	6821      	ldr	r1, [r4, #0]
 8002560:	b111      	cbz	r1, 8002568 <_reclaim_reent+0x7c>
 8002562:	4628      	mov	r0, r5
 8002564:	f7ff ff9e 	bl	80024a4 <cleanup_glue>
 8002568:	4621      	mov	r1, r4
 800256a:	4628      	mov	r0, r5
 800256c:	e8bd 4070 	ldmia.w	sp!, {r4, r5, r6, lr}
 8002570:	f7ff bdc6 	b.w	8002100 <_free_r>
 8002574:	bd70      	pop	{r4, r5, r6, pc}
 8002576:	4770      	bx	lr
 8002578:	20000128 	.word	0x20000128

0800257c <_fstat_r>:
 800257c:	b570      	push	{r4, r5, r6, lr}
 800257e:	460c      	mov	r4, r1
 8002580:	4d08      	ldr	r5, [pc, #32]	; (80025a4 <_fstat_r+0x28>)
 8002582:	4603      	mov	r3, r0
 8002584:	2600      	movs	r6, #0
 8002586:	4620      	mov	r0, r4
 8002588:	4611      	mov	r1, r2
 800258a:	461c      	mov	r4, r3
 800258c:	602e      	str	r6, [r5, #0]
 800258e:	f000 fa41 	bl	8002a14 <_fstat>
 8002592:	1c43      	adds	r3, r0, #1
 8002594:	d000      	beq.n	8002598 <_fstat_r+0x1c>
 8002596:	bd70      	pop	{r4, r5, r6, pc}
 8002598:	682b      	ldr	r3, [r5, #0]
 800259a:	2b00      	cmp	r3, #0
 800259c:	d0fb      	beq.n	8002596 <_fstat_r+0x1a>
 800259e:	6023      	str	r3, [r4, #0]
 80025a0:	bd70      	pop	{r4, r5, r6, pc}
 80025a2:	bf00      	nop
 80025a4:	20000a5c 	.word	0x20000a5c

080025a8 <_isatty_r>:
 80025a8:	b538      	push	{r3, r4, r5, lr}
 80025aa:	4d07      	ldr	r5, [pc, #28]	; (80025c8 <_isatty_r+0x20>)
 80025ac:	2200      	movs	r2, #0
 80025ae:	4604      	mov	r4, r0
 80025b0:	4608      	mov	r0, r1
 80025b2:	602a      	str	r2, [r5, #0]
 80025b4:	f000 fc9c 	bl	8002ef0 <_isatty>
 80025b8:	1c43      	adds	r3, r0, #1
 80025ba:	d000      	beq.n	80025be <_isatty_r+0x16>
 80025bc:	bd38      	pop	{r3, r4, r5, pc}
 80025be:	682b      	ldr	r3, [r5, #0]
 80025c0:	2b00      	cmp	r3, #0
 80025c2:	d0fb      	beq.n	80025bc <_isatty_r+0x14>
 80025c4:	6023      	str	r3, [r4, #0]
 80025c6:	bd38      	pop	{r3, r4, r5, pc}
 80025c8:	20000a5c 	.word	0x20000a5c

080025cc <_swiread>:
 80025cc:	b5f0      	push	{r4, r5, r6, r7, lr}
 80025ce:	b085      	sub	sp, #20
 80025d0:	e9cd 0101 	strd	r0, r1, [sp, #4]
 80025d4:	9203      	str	r2, [sp, #12]
 80025d6:	2406      	movs	r4, #6
 80025d8:	ad01      	add	r5, sp, #4
 80025da:	4620      	mov	r0, r4
 80025dc:	4629      	mov	r1, r5
 80025de:	beab      	bkpt	0x00ab
 80025e0:	4604      	mov	r4, r0
 80025e2:	1c63      	adds	r3, r4, #1
 80025e4:	d002      	beq.n	80025ec <_swiread+0x20>
 80025e6:	4620      	mov	r0, r4
 80025e8:	b005      	add	sp, #20
 80025ea:	bdf0      	pop	{r4, r5, r6, r7, pc}
 80025ec:	f000 fd3c 	bl	8003068 <__errno>
 80025f0:	2613      	movs	r6, #19
 80025f2:	4605      	mov	r5, r0
 80025f4:	2700      	movs	r7, #0
 80025f6:	4630      	mov	r0, r6
 80025f8:	4639      	mov	r1, r7
 80025fa:	beab      	bkpt	0x00ab
 80025fc:	4606      	mov	r6, r0
 80025fe:	4620      	mov	r0, r4
 8002600:	602e      	str	r6, [r5, #0]
 8002602:	b005      	add	sp, #20
 8002604:	bdf0      	pop	{r4, r5, r6, r7, pc}
 8002606:	bf00      	nop

08002608 <_read>:
 8002608:	e92d 41f0 	stmdb	sp!, {r4, r5, r6, r7, r8, lr}
 800260c:	4b20      	ldr	r3, [pc, #128]	; (8002690 <_read+0x88>)
 800260e:	681b      	ldr	r3, [r3, #0]
 8002610:	b084      	sub	sp, #16
 8002612:	4606      	mov	r6, r0
 8002614:	460c      	mov	r4, r1
 8002616:	4615      	mov	r5, r2
 8002618:	b10b      	cbz	r3, 800261e <_read+0x16>
 800261a:	6b9a      	ldr	r2, [r3, #56]	; 0x38
 800261c:	b1ea      	cbz	r2, 800265a <_read+0x52>
 800261e:	2e13      	cmp	r6, #19
 8002620:	d820      	bhi.n	8002664 <_read+0x5c>
 8002622:	4f1c      	ldr	r7, [pc, #112]	; (8002694 <_read+0x8c>)
 8002624:	f857 3036 	ldr.w	r3, [r7, r6, lsl #3]
 8002628:	1c5a      	adds	r2, r3, #1
 800262a:	d01b      	beq.n	8002664 <_read+0x5c>
 800262c:	e9cd 3401 	strd	r3, r4, [sp, #4]
 8002630:	9503      	str	r5, [sp, #12]
 8002632:	2406      	movs	r4, #6
 8002634:	f10d 0804 	add.w	r8, sp, #4
 8002638:	4620      	mov	r0, r4
 800263a:	4641      	mov	r1, r8
 800263c:	beab      	bkpt	0x00ab
 800263e:	4604      	mov	r4, r0
 8002640:	1c63      	adds	r3, r4, #1
 8002642:	d016      	beq.n	8002672 <_read+0x6a>
 8002644:	eb07 00c6 	add.w	r0, r7, r6, lsl #3
 8002648:	1b2a      	subs	r2, r5, r4
 800264a:	6843      	ldr	r3, [r0, #4]
 800264c:	4614      	mov	r4, r2
 800264e:	441a      	add	r2, r3
 8002650:	6042      	str	r2, [r0, #4]
 8002652:	4620      	mov	r0, r4
 8002654:	b004      	add	sp, #16
 8002656:	e8bd 81f0 	ldmia.w	sp!, {r4, r5, r6, r7, r8, pc}
 800265a:	4618      	mov	r0, r3
 800265c:	f7fe fa3c 	bl	8000ad8 <__sinit>
 8002660:	2e13      	cmp	r6, #19
 8002662:	d9de      	bls.n	8002622 <_read+0x1a>
 8002664:	f000 fd00 	bl	8003068 <__errno>
 8002668:	2309      	movs	r3, #9
 800266a:	6003      	str	r3, [r0, #0]
 800266c:	f04f 34ff 	mov.w	r4, #4294967295
 8002670:	e7ef      	b.n	8002652 <_read+0x4a>
 8002672:	f000 fcf9 	bl	8003068 <__errno>
 8002676:	2613      	movs	r6, #19
 8002678:	4605      	mov	r5, r0
 800267a:	2700      	movs	r7, #0
 800267c:	4630      	mov	r0, r6
 800267e:	4639      	mov	r1, r7
 8002680:	beab      	bkpt	0x00ab
 8002682:	4606      	mov	r6, r0
 8002684:	4620      	mov	r0, r4
 8002686:	602e      	str	r6, [r5, #0]
 8002688:	b004      	add	sp, #16
 800268a:	e8bd 81f0 	ldmia.w	sp!, {r4, r5, r6, r7, r8, pc}
 800268e:	bf00      	nop
 8002690:	20000128 	.word	0x20000128
 8002694:	20000a70 	.word	0x20000a70

08002698 <_swilseek>:
 8002698:	e92d 43f0 	stmdb	sp!, {r4, r5, r6, r7, r8, r9, lr}
 800269c:	4b35      	ldr	r3, [pc, #212]	; (8002774 <_swilseek+0xdc>)
 800269e:	681b      	ldr	r3, [r3, #0]
 80026a0:	b083      	sub	sp, #12
 80026a2:	4605      	mov	r5, r0
 80026a4:	4688      	mov	r8, r1
 80026a6:	4614      	mov	r4, r2
 80026a8:	b10b      	cbz	r3, 80026ae <_swilseek+0x16>
 80026aa:	6b9a      	ldr	r2, [r3, #56]	; 0x38
 80026ac:	b312      	cbz	r2, 80026f4 <_swilseek+0x5c>
 80026ae:	2d13      	cmp	r5, #19
 80026b0:	d825      	bhi.n	80026fe <_swilseek+0x66>
 80026b2:	4e31      	ldr	r6, [pc, #196]	; (8002778 <_swilseek+0xe0>)
 80026b4:	f856 3035 	ldr.w	r3, [r6, r5, lsl #3]
 80026b8:	1c59      	adds	r1, r3, #1
 80026ba:	d020      	beq.n	80026fe <_swilseek+0x66>
 80026bc:	2c02      	cmp	r4, #2
 80026be:	d838      	bhi.n	8002732 <_swilseek+0x9a>
 80026c0:	2c01      	cmp	r4, #1
 80026c2:	d030      	beq.n	8002726 <_swilseek+0x8e>
 80026c4:	2c02      	cmp	r4, #2
 80026c6:	d021      	beq.n	800270c <_swilseek+0x74>
 80026c8:	4644      	mov	r4, r8
 80026ca:	46e9      	mov	r9, sp
 80026cc:	e9cd 3400 	strd	r3, r4, [sp]
 80026d0:	270a      	movs	r7, #10
 80026d2:	4638      	mov	r0, r7
 80026d4:	4649      	mov	r1, r9
 80026d6:	beab      	bkpt	0x00ab
 80026d8:	4607      	mov	r7, r0
 80026da:	1c7b      	adds	r3, r7, #1
 80026dc:	d030      	beq.n	8002740 <_swilseek+0xa8>
 80026de:	2f00      	cmp	r7, #0
 80026e0:	bfaa      	itet	ge
 80026e2:	eb06 05c5 	addge.w	r5, r6, r5, lsl #3
 80026e6:	f04f 34ff 	movlt.w	r4, #4294967295
 80026ea:	606c      	strge	r4, [r5, #4]
 80026ec:	4620      	mov	r0, r4
 80026ee:	b003      	add	sp, #12
 80026f0:	e8bd 83f0 	ldmia.w	sp!, {r4, r5, r6, r7, r8, r9, pc}
 80026f4:	4618      	mov	r0, r3
 80026f6:	f7fe f9ef 	bl	8000ad8 <__sinit>
 80026fa:	2d13      	cmp	r5, #19
 80026fc:	d9d9      	bls.n	80026b2 <_swilseek+0x1a>
 80026fe:	f000 fcb3 	bl	8003068 <__errno>
 8002702:	2309      	movs	r3, #9
 8002704:	6003      	str	r3, [r0, #0]
 8002706:	f04f 34ff 	mov.w	r4, #4294967295
 800270a:	e7ef      	b.n	80026ec <_swilseek+0x54>
 800270c:	9300      	str	r3, [sp, #0]
 800270e:	240c      	movs	r4, #12
 8002710:	46e9      	mov	r9, sp
 8002712:	4620      	mov	r0, r4
 8002714:	4649      	mov	r1, r9
 8002716:	beab      	bkpt	0x00ab
 8002718:	4604      	mov	r4, r0
 800271a:	1c62      	adds	r2, r4, #1
 800271c:	d01f      	beq.n	800275e <_swilseek+0xc6>
 800271e:	f856 3035 	ldr.w	r3, [r6, r5, lsl #3]
 8002722:	4444      	add	r4, r8
 8002724:	e7d2      	b.n	80026cc <_swilseek+0x34>
 8002726:	eb06 02c5 	add.w	r2, r6, r5, lsl #3
 800272a:	6854      	ldr	r4, [r2, #4]
 800272c:	eb18 0404 	adds.w	r4, r8, r4
 8002730:	d5cb      	bpl.n	80026ca <_swilseek+0x32>
 8002732:	f000 fc99 	bl	8003068 <__errno>
 8002736:	2316      	movs	r3, #22
 8002738:	6003      	str	r3, [r0, #0]
 800273a:	f04f 34ff 	mov.w	r4, #4294967295
 800273e:	e7d5      	b.n	80026ec <_swilseek+0x54>
 8002740:	f000 fc92 	bl	8003068 <__errno>
 8002744:	2513      	movs	r5, #19
 8002746:	4604      	mov	r4, r0
 8002748:	2600      	movs	r6, #0
 800274a:	4628      	mov	r0, r5
 800274c:	4631      	mov	r1, r6
 800274e:	beab      	bkpt	0x00ab
 8002750:	4605      	mov	r5, r0
 8002752:	6025      	str	r5, [r4, #0]
 8002754:	463c      	mov	r4, r7
 8002756:	4620      	mov	r0, r4
 8002758:	b003      	add	sp, #12
 800275a:	e8bd 83f0 	ldmia.w	sp!, {r4, r5, r6, r7, r8, r9, pc}
 800275e:	f000 fc83 	bl	8003068 <__errno>
 8002762:	2613      	movs	r6, #19
 8002764:	4605      	mov	r5, r0
 8002766:	2700      	movs	r7, #0
 8002768:	4630      	mov	r0, r6
 800276a:	4639      	mov	r1, r7
 800276c:	beab      	bkpt	0x00ab
 800276e:	4606      	mov	r6, r0
 8002770:	602e      	str	r6, [r5, #0]
 8002772:	e7bb      	b.n	80026ec <_swilseek+0x54>
 8002774:	20000128 	.word	0x20000128
 8002778:	20000a70 	.word	0x20000a70

0800277c <_lseek>:
 800277c:	f7ff bf8c 	b.w	8002698 <_swilseek>

08002780 <_swiwrite>:
 8002780:	b5f0      	push	{r4, r5, r6, r7, lr}
 8002782:	b085      	sub	sp, #20
 8002784:	e9cd 0101 	strd	r0, r1, [sp, #4]
 8002788:	9203      	str	r2, [sp, #12]
 800278a:	2405      	movs	r4, #5
 800278c:	ad01      	add	r5, sp, #4
 800278e:	4620      	mov	r0, r4
 8002790:	4629      	mov	r1, r5
 8002792:	beab      	bkpt	0x00ab
 8002794:	4604      	mov	r4, r0
 8002796:	1c63      	adds	r3, r4, #1
 8002798:	d002      	beq.n	80027a0 <_swiwrite+0x20>
 800279a:	4620      	mov	r0, r4
 800279c:	b005      	add	sp, #20
 800279e:	bdf0      	pop	{r4, r5, r6, r7, pc}
 80027a0:	f000 fc62 	bl	8003068 <__errno>
 80027a4:	2613      	movs	r6, #19
 80027a6:	4605      	mov	r5, r0
 80027a8:	2700      	movs	r7, #0
 80027aa:	4630      	mov	r0, r6
 80027ac:	4639      	mov	r1, r7
 80027ae:	beab      	bkpt	0x00ab
 80027b0:	4606      	mov	r6, r0
 80027b2:	4620      	mov	r0, r4
 80027b4:	602e      	str	r6, [r5, #0]
 80027b6:	b005      	add	sp, #20
 80027b8:	bdf0      	pop	{r4, r5, r6, r7, pc}
 80027ba:	bf00      	nop

080027bc <_write>:
 80027bc:	e92d 41f0 	stmdb	sp!, {r4, r5, r6, r7, r8, lr}
 80027c0:	4b2b      	ldr	r3, [pc, #172]	; (8002870 <_write+0xb4>)
 80027c2:	681b      	ldr	r3, [r3, #0]
 80027c4:	b084      	sub	sp, #16
 80027c6:	4606      	mov	r6, r0
 80027c8:	460c      	mov	r4, r1
 80027ca:	4615      	mov	r5, r2
 80027cc:	b10b      	cbz	r3, 80027d2 <_write+0x16>
 80027ce:	6b9a      	ldr	r2, [r3, #56]	; 0x38
 80027d0:	b312      	cbz	r2, 8002818 <_write+0x5c>
 80027d2:	2e13      	cmp	r6, #19
 80027d4:	d825      	bhi.n	8002822 <_write+0x66>
 80027d6:	4f27      	ldr	r7, [pc, #156]	; (8002874 <_write+0xb8>)
 80027d8:	f857 3036 	ldr.w	r3, [r7, r6, lsl #3]
 80027dc:	1c5a      	adds	r2, r3, #1
 80027de:	d020      	beq.n	8002822 <_write+0x66>
 80027e0:	e9cd 3401 	strd	r3, r4, [sp, #4]
 80027e4:	9503      	str	r5, [sp, #12]
 80027e6:	2405      	movs	r4, #5
 80027e8:	f10d 0804 	add.w	r8, sp, #4
 80027ec:	4620      	mov	r0, r4
 80027ee:	4641      	mov	r1, r8
 80027f0:	beab      	bkpt	0x00ab
 80027f2:	4604      	mov	r4, r0
 80027f4:	1c63      	adds	r3, r4, #1
 80027f6:	d01b      	beq.n	8002830 <_write+0x74>
 80027f8:	2c00      	cmp	r4, #0
 80027fa:	db35      	blt.n	8002868 <_write+0xac>
 80027fc:	eb07 00c6 	add.w	r0, r7, r6, lsl #3
 8002800:	1b2a      	subs	r2, r5, r4
 8002802:	6843      	ldr	r3, [r0, #4]
 8002804:	42ac      	cmp	r4, r5
 8002806:	4413      	add	r3, r2
 8002808:	6043      	str	r3, [r0, #4]
 800280a:	bf18      	it	ne
 800280c:	4614      	movne	r4, r2
 800280e:	d01d      	beq.n	800284c <_write+0x90>
 8002810:	4620      	mov	r0, r4
 8002812:	b004      	add	sp, #16
 8002814:	e8bd 81f0 	ldmia.w	sp!, {r4, r5, r6, r7, r8, pc}
 8002818:	4618      	mov	r0, r3
 800281a:	f7fe f95d 	bl	8000ad8 <__sinit>
 800281e:	2e13      	cmp	r6, #19
 8002820:	d9d9      	bls.n	80027d6 <_write+0x1a>
 8002822:	f000 fc21 	bl	8003068 <__errno>
 8002826:	2309      	movs	r3, #9
 8002828:	6003      	str	r3, [r0, #0]
 800282a:	f04f 34ff 	mov.w	r4, #4294967295
 800282e:	e7ef      	b.n	8002810 <_write+0x54>
 8002830:	f000 fc1a 	bl	8003068 <__errno>
 8002834:	2613      	movs	r6, #19
 8002836:	4605      	mov	r5, r0
 8002838:	2700      	movs	r7, #0
 800283a:	4630      	mov	r0, r6
 800283c:	4639      	mov	r1, r7
 800283e:	beab      	bkpt	0x00ab
 8002840:	4606      	mov	r6, r0
 8002842:	4620      	mov	r0, r4
 8002844:	602e      	str	r6, [r5, #0]
 8002846:	b004      	add	sp, #16
 8002848:	e8bd 81f0 	ldmia.w	sp!, {r4, r5, r6, r7, r8, pc}
 800284c:	f000 fc0c 	bl	8003068 <__errno>
 8002850:	2613      	movs	r6, #19
 8002852:	4605      	mov	r5, r0
 8002854:	2400      	movs	r4, #0
 8002856:	4630      	mov	r0, r6
 8002858:	4621      	mov	r1, r4
 800285a:	beab      	bkpt	0x00ab
 800285c:	4606      	mov	r6, r0
 800285e:	4620      	mov	r0, r4
 8002860:	602e      	str	r6, [r5, #0]
 8002862:	b004      	add	sp, #16
 8002864:	e8bd 81f0 	ldmia.w	sp!, {r4, r5, r6, r7, r8, pc}
 8002868:	f04f 34ff 	mov.w	r4, #4294967295
 800286c:	e7d0      	b.n	8002810 <_write+0x54>
 800286e:	bf00      	nop
 8002870:	20000128 	.word	0x20000128
 8002874:	20000a70 	.word	0x20000a70

08002878 <_swiclose>:
 8002878:	b5f0      	push	{r4, r5, r6, r7, lr}
 800287a:	b083      	sub	sp, #12
 800287c:	2402      	movs	r4, #2
 800287e:	9001      	str	r0, [sp, #4]
 8002880:	ad01      	add	r5, sp, #4
 8002882:	4620      	mov	r0, r4
 8002884:	4629      	mov	r1, r5
 8002886:	beab      	bkpt	0x00ab
 8002888:	4604      	mov	r4, r0
 800288a:	1c63      	adds	r3, r4, #1
 800288c:	d002      	beq.n	8002894 <_swiclose+0x1c>
 800288e:	4620      	mov	r0, r4
 8002890:	b003      	add	sp, #12
 8002892:	bdf0      	pop	{r4, r5, r6, r7, pc}
 8002894:	f000 fbe8 	bl	8003068 <__errno>
 8002898:	2613      	movs	r6, #19
 800289a:	4605      	mov	r5, r0
 800289c:	2700      	movs	r7, #0
 800289e:	4630      	mov	r0, r6
 80028a0:	4639      	mov	r1, r7
 80028a2:	beab      	bkpt	0x00ab
 80028a4:	4606      	mov	r6, r0
 80028a6:	4620      	mov	r0, r4
 80028a8:	602e      	str	r6, [r5, #0]
 80028aa:	b003      	add	sp, #12
 80028ac:	bdf0      	pop	{r4, r5, r6, r7, pc}
 80028ae:	bf00      	nop

080028b0 <_close>:
 80028b0:	b5f0      	push	{r4, r5, r6, r7, lr}
 80028b2:	4b23      	ldr	r3, [pc, #140]	; (8002940 <_close+0x90>)
 80028b4:	681b      	ldr	r3, [r3, #0]
 80028b6:	b083      	sub	sp, #12
 80028b8:	4605      	mov	r5, r0
 80028ba:	b10b      	cbz	r3, 80028c0 <_close+0x10>
 80028bc:	6b9a      	ldr	r2, [r3, #56]	; 0x38
 80028be:	b1f2      	cbz	r2, 80028fe <_close+0x4e>
 80028c0:	2d13      	cmp	r5, #19
 80028c2:	d821      	bhi.n	8002908 <_close+0x58>
 80028c4:	4e1f      	ldr	r6, [pc, #124]	; (8002944 <_close+0x94>)
 80028c6:	f856 3035 	ldr.w	r3, [r6, r5, lsl #3]
 80028ca:	1c5a      	adds	r2, r3, #1
 80028cc:	d01c      	beq.n	8002908 <_close+0x58>
 80028ce:	1e6a      	subs	r2, r5, #1
 80028d0:	2a01      	cmp	r2, #1
 80028d2:	d803      	bhi.n	80028dc <_close+0x2c>
 80028d4:	68b1      	ldr	r1, [r6, #8]
 80028d6:	6932      	ldr	r2, [r6, #16]
 80028d8:	4291      	cmp	r1, r2
 80028da:	d01c      	beq.n	8002916 <_close+0x66>
 80028dc:	9301      	str	r3, [sp, #4]
 80028de:	2402      	movs	r4, #2
 80028e0:	af01      	add	r7, sp, #4
 80028e2:	4620      	mov	r0, r4
 80028e4:	4639      	mov	r1, r7
 80028e6:	beab      	bkpt	0x00ab
 80028e8:	4604      	mov	r4, r0
 80028ea:	1c63      	adds	r3, r4, #1
 80028ec:	d01b      	beq.n	8002926 <_close+0x76>
 80028ee:	b91c      	cbnz	r4, 80028f8 <_close+0x48>
 80028f0:	f04f 33ff 	mov.w	r3, #4294967295
 80028f4:	f846 3035 	str.w	r3, [r6, r5, lsl #3]
 80028f8:	4620      	mov	r0, r4
 80028fa:	b003      	add	sp, #12
 80028fc:	bdf0      	pop	{r4, r5, r6, r7, pc}
 80028fe:	4618      	mov	r0, r3
 8002900:	f7fe f8ea 	bl	8000ad8 <__sinit>
 8002904:	2d13      	cmp	r5, #19
 8002906:	d9dd      	bls.n	80028c4 <_close+0x14>
 8002908:	f000 fbae 	bl	8003068 <__errno>
 800290c:	2309      	movs	r3, #9
 800290e:	6003      	str	r3, [r0, #0]
 8002910:	f04f 34ff 	mov.w	r4, #4294967295
 8002914:	e7f0      	b.n	80028f8 <_close+0x48>
 8002916:	2400      	movs	r4, #0
 8002918:	f04f 33ff 	mov.w	r3, #4294967295
 800291c:	4620      	mov	r0, r4
 800291e:	f846 3035 	str.w	r3, [r6, r5, lsl #3]
 8002922:	b003      	add	sp, #12
 8002924:	bdf0      	pop	{r4, r5, r6, r7, pc}
 8002926:	f000 fb9f 	bl	8003068 <__errno>
 800292a:	2613      	movs	r6, #19
 800292c:	4605      	mov	r5, r0
 800292e:	2700      	movs	r7, #0
 8002930:	4630      	mov	r0, r6
 8002932:	4639      	mov	r1, r7
 8002934:	beab      	bkpt	0x00ab
 8002936:	4606      	mov	r6, r0
 8002938:	4620      	mov	r0, r4
 800293a:	602e      	str	r6, [r5, #0]
 800293c:	b003      	add	sp, #12
 800293e:	bdf0      	pop	{r4, r5, r6, r7, pc}
 8002940:	20000128 	.word	0x20000128
 8002944:	20000a70 	.word	0x20000a70

08002948 <_getpid>:
 8002948:	2001      	movs	r0, #1
 800294a:	4770      	bx	lr

0800294c <_sbrk>:
 800294c:	4a0d      	ldr	r2, [pc, #52]	; (8002984 <_sbrk+0x38>)
 800294e:	4603      	mov	r3, r0
 8002950:	6810      	ldr	r0, [r2, #0]
 8002952:	b510      	push	{r4, lr}
 8002954:	b198      	cbz	r0, 800297e <_sbrk+0x32>
 8002956:	4403      	add	r3, r0
 8002958:	4669      	mov	r1, sp
 800295a:	428b      	cmp	r3, r1
 800295c:	d808      	bhi.n	8002970 <_sbrk+0x24>
 800295e:	490a      	ldr	r1, [pc, #40]	; (8002988 <_sbrk+0x3c>)
 8002960:	4c0a      	ldr	r4, [pc, #40]	; (800298c <_sbrk+0x40>)
 8002962:	6809      	ldr	r1, [r1, #0]
 8002964:	42a1      	cmp	r1, r4
 8002966:	d001      	beq.n	800296c <_sbrk+0x20>
 8002968:	428b      	cmp	r3, r1
 800296a:	d801      	bhi.n	8002970 <_sbrk+0x24>
 800296c:	6013      	str	r3, [r2, #0]
 800296e:	bd10      	pop	{r4, pc}
 8002970:	f000 fb7a 	bl	8003068 <__errno>
 8002974:	230c      	movs	r3, #12
 8002976:	6003      	str	r3, [r0, #0]
 8002978:	f04f 30ff 	mov.w	r0, #4294967295
 800297c:	bd10      	pop	{r4, pc}
 800297e:	4804      	ldr	r0, [pc, #16]	; (8002990 <_sbrk+0x44>)
 8002980:	6010      	str	r0, [r2, #0]
 8002982:	e7e8      	b.n	8002956 <_sbrk+0xa>
 8002984:	20000a60 	.word	0x20000a60
 8002988:	2000096c 	.word	0x2000096c
 800298c:	cafedead 	.word	0xcafedead
 8002990:	20000b10 	.word	0x20000b10

08002994 <_swistat>:
 8002994:	b5f8      	push	{r3, r4, r5, r6, r7, lr}
 8002996:	4b1d      	ldr	r3, [pc, #116]	; (8002a0c <_swistat+0x78>)
 8002998:	681b      	ldr	r3, [r3, #0]
 800299a:	4606      	mov	r6, r0
 800299c:	460d      	mov	r5, r1
 800299e:	b10b      	cbz	r3, 80029a4 <_swistat+0x10>
 80029a0:	6b9a      	ldr	r2, [r3, #56]	; 0x38
 80029a2:	b1d2      	cbz	r2, 80029da <_swistat+0x46>
 80029a4:	2e13      	cmp	r6, #19
 80029a6:	d81d      	bhi.n	80029e4 <_swistat+0x50>
 80029a8:	4819      	ldr	r0, [pc, #100]	; (8002a10 <_swistat+0x7c>)
 80029aa:	f850 3036 	ldr.w	r3, [r0, r6, lsl #3]
 80029ae:	3301      	adds	r3, #1
 80029b0:	d018      	beq.n	80029e4 <_swistat+0x50>
 80029b2:	686b      	ldr	r3, [r5, #4]
 80029b4:	f44f 6280 	mov.w	r2, #1024	; 0x400
 80029b8:	f443 5300 	orr.w	r3, r3, #8192	; 0x2000
 80029bc:	606b      	str	r3, [r5, #4]
 80029be:	64aa      	str	r2, [r5, #72]	; 0x48
 80029c0:	240c      	movs	r4, #12
 80029c2:	eb00 06c6 	add.w	r6, r0, r6, lsl #3
 80029c6:	4620      	mov	r0, r4
 80029c8:	4631      	mov	r1, r6
 80029ca:	beab      	bkpt	0x00ab
 80029cc:	4604      	mov	r4, r0
 80029ce:	1c63      	adds	r3, r4, #1
 80029d0:	d00f      	beq.n	80029f2 <_swistat+0x5e>
 80029d2:	612c      	str	r4, [r5, #16]
 80029d4:	2400      	movs	r4, #0
 80029d6:	4620      	mov	r0, r4
 80029d8:	bdf8      	pop	{r3, r4, r5, r6, r7, pc}
 80029da:	4618      	mov	r0, r3
 80029dc:	f7fe f87c 	bl	8000ad8 <__sinit>
 80029e0:	2e13      	cmp	r6, #19
 80029e2:	d9e1      	bls.n	80029a8 <_swistat+0x14>
 80029e4:	f000 fb40 	bl	8003068 <__errno>
 80029e8:	2309      	movs	r3, #9
 80029ea:	6003      	str	r3, [r0, #0]
 80029ec:	f04f 34ff 	mov.w	r4, #4294967295
 80029f0:	e7f1      	b.n	80029d6 <_swistat+0x42>
 80029f2:	f000 fb39 	bl	8003068 <__errno>
 80029f6:	2613      	movs	r6, #19
 80029f8:	4605      	mov	r5, r0
 80029fa:	2700      	movs	r7, #0
 80029fc:	4630      	mov	r0, r6
 80029fe:	4639      	mov	r1, r7
 8002a00:	beab      	bkpt	0x00ab
 8002a02:	4606      	mov	r6, r0
 8002a04:	602e      	str	r6, [r5, #0]
 8002a06:	4620      	mov	r0, r4
 8002a08:	bdf8      	pop	{r3, r4, r5, r6, r7, pc}
 8002a0a:	bf00      	nop
 8002a0c:	20000128 	.word	0x20000128
 8002a10:	20000a70 	.word	0x20000a70

08002a14 <_fstat>:
 8002a14:	460b      	mov	r3, r1
 8002a16:	b510      	push	{r4, lr}
 8002a18:	2100      	movs	r1, #0
 8002a1a:	4604      	mov	r4, r0
 8002a1c:	2258      	movs	r2, #88	; 0x58
 8002a1e:	4618      	mov	r0, r3
 8002a20:	f7fd fefc 	bl	800081c <memset>
 8002a24:	4601      	mov	r1, r0
 8002a26:	4620      	mov	r0, r4
 8002a28:	e8bd 4010 	ldmia.w	sp!, {r4, lr}
 8002a2c:	f7ff bfb2 	b.w	8002994 <_swistat>

08002a30 <_stat>:
 8002a30:	b538      	push	{r3, r4, r5, lr}
 8002a32:	460c      	mov	r4, r1
 8002a34:	4605      	mov	r5, r0
 8002a36:	2258      	movs	r2, #88	; 0x58
 8002a38:	2100      	movs	r1, #0
 8002a3a:	4620      	mov	r0, r4
 8002a3c:	f7fd feee 	bl	800081c <memset>
 8002a40:	4628      	mov	r0, r5
 8002a42:	2100      	movs	r1, #0
 8002a44:	f000 f812 	bl	8002a6c <_swiopen>
 8002a48:	1c43      	adds	r3, r0, #1
 8002a4a:	4605      	mov	r5, r0
 8002a4c:	d00b      	beq.n	8002a66 <_stat+0x36>
 8002a4e:	6863      	ldr	r3, [r4, #4]
 8002a50:	f443 4301 	orr.w	r3, r3, #33024	; 0x8100
 8002a54:	6063      	str	r3, [r4, #4]
 8002a56:	4621      	mov	r1, r4
 8002a58:	f7ff ff9c 	bl	8002994 <_swistat>
 8002a5c:	4603      	mov	r3, r0
 8002a5e:	4628      	mov	r0, r5
 8002a60:	461d      	mov	r5, r3
 8002a62:	f7ff ff25 	bl	80028b0 <_close>
 8002a66:	4628      	mov	r0, r5
 8002a68:	bd38      	pop	{r3, r4, r5, pc}
 8002a6a:	bf00      	nop

08002a6c <_swiopen>:
 8002a6c:	e92d 41f0 	stmdb	sp!, {r4, r5, r6, r7, r8, lr}
 8002a70:	4603      	mov	r3, r0
 8002a72:	4e30      	ldr	r6, [pc, #192]	; (8002b34 <_swiopen+0xc8>)
 8002a74:	b098      	sub	sp, #96	; 0x60
 8002a76:	460f      	mov	r7, r1
 8002a78:	2400      	movs	r4, #0
 8002a7a:	e002      	b.n	8002a82 <_swiopen+0x16>
 8002a7c:	3401      	adds	r4, #1
 8002a7e:	2c14      	cmp	r4, #20
 8002a80:	d051      	beq.n	8002b26 <_swiopen+0xba>
 8002a82:	f856 5034 	ldr.w	r5, [r6, r4, lsl #3]
 8002a86:	1c68      	adds	r0, r5, #1
 8002a88:	d1f8      	bne.n	8002a7c <_swiopen+0x10>
 8002a8a:	f407 6220 	and.w	r2, r7, #2560	; 0xa00
 8002a8e:	f5b2 6f20 	cmp.w	r2, #2560	; 0xa00
 8002a92:	f10d 0808 	add.w	r8, sp, #8
 8002a96:	d038      	beq.n	8002b0a <_swiopen+0x9e>
 8002a98:	f3c7 4500 	ubfx	r5, r7, #16, #1
 8002a9c:	f240 6201 	movw	r2, #1537	; 0x601
 8002aa0:	07b9      	lsls	r1, r7, #30
 8002aa2:	bf48      	it	mi
 8002aa4:	f045 0502 	orrmi.w	r5, r5, #2
 8002aa8:	4217      	tst	r7, r2
 8002aaa:	bf18      	it	ne
 8002aac:	f045 0504 	orrne.w	r5, r5, #4
 8002ab0:	073a      	lsls	r2, r7, #28
 8002ab2:	bf48      	it	mi
 8002ab4:	f025 0504 	bicmi.w	r5, r5, #4
 8002ab8:	4618      	mov	r0, r3
 8002aba:	bf48      	it	mi
 8002abc:	f045 0508 	orrmi.w	r5, r5, #8
 8002ac0:	9302      	str	r3, [sp, #8]
 8002ac2:	f7fd fd1d 	bl	8000500 <strlen>
 8002ac6:	e9cd 5003 	strd	r5, r0, [sp, #12]
 8002aca:	2501      	movs	r5, #1
 8002acc:	4628      	mov	r0, r5
 8002ace:	4641      	mov	r1, r8
 8002ad0:	beab      	bkpt	0x00ab
 8002ad2:	4605      	mov	r5, r0
 8002ad4:	2d00      	cmp	r5, #0
 8002ad6:	db09      	blt.n	8002aec <_swiopen+0x80>
 8002ad8:	eb06 03c4 	add.w	r3, r6, r4, lsl #3
 8002adc:	2200      	movs	r2, #0
 8002ade:	f846 5034 	str.w	r5, [r6, r4, lsl #3]
 8002ae2:	605a      	str	r2, [r3, #4]
 8002ae4:	4620      	mov	r0, r4
 8002ae6:	b018      	add	sp, #96	; 0x60
 8002ae8:	e8bd 81f0 	ldmia.w	sp!, {r4, r5, r6, r7, r8, pc}
 8002aec:	f000 fabc 	bl	8003068 <__errno>
 8002af0:	2613      	movs	r6, #19
 8002af2:	4604      	mov	r4, r0
 8002af4:	2700      	movs	r7, #0
 8002af6:	4630      	mov	r0, r6
 8002af8:	4639      	mov	r1, r7
 8002afa:	beab      	bkpt	0x00ab
 8002afc:	4606      	mov	r6, r0
 8002afe:	6026      	str	r6, [r4, #0]
 8002b00:	462c      	mov	r4, r5
 8002b02:	4620      	mov	r0, r4
 8002b04:	b018      	add	sp, #96	; 0x60
 8002b06:	e8bd 81f0 	ldmia.w	sp!, {r4, r5, r6, r7, r8, pc}
 8002b0a:	4618      	mov	r0, r3
 8002b0c:	4641      	mov	r1, r8
 8002b0e:	9301      	str	r3, [sp, #4]
 8002b10:	f7ff ff8e 	bl	8002a30 <_stat>
 8002b14:	3001      	adds	r0, #1
 8002b16:	9b01      	ldr	r3, [sp, #4]
 8002b18:	d0be      	beq.n	8002a98 <_swiopen+0x2c>
 8002b1a:	f000 faa5 	bl	8003068 <__errno>
 8002b1e:	2311      	movs	r3, #17
 8002b20:	6003      	str	r3, [r0, #0]
 8002b22:	462c      	mov	r4, r5
 8002b24:	e7de      	b.n	8002ae4 <_swiopen+0x78>
 8002b26:	f000 fa9f 	bl	8003068 <__errno>
 8002b2a:	2318      	movs	r3, #24
 8002b2c:	6003      	str	r3, [r0, #0]
 8002b2e:	f04f 34ff 	mov.w	r4, #4294967295
 8002b32:	e7d7      	b.n	8002ae4 <_swiopen+0x78>
 8002b34:	20000a70 	.word	0x20000a70

08002b38 <_open>:
 8002b38:	b40e      	push	{r1, r2, r3}
 8002b3a:	b500      	push	{lr}
 8002b3c:	9901      	ldr	r1, [sp, #4]
 8002b3e:	f7ff ff95 	bl	8002a6c <_swiopen>
 8002b42:	f85d eb04 	ldr.w	lr, [sp], #4
 8002b46:	b003      	add	sp, #12
 8002b48:	4770      	bx	lr
 8002b4a:	bf00      	nop

08002b4c <_get_semihosting_exts>:
 8002b4c:	e92d 43f0 	stmdb	sp!, {r4, r5, r6, r7, r8, r9, lr}
 8002b50:	4607      	mov	r7, r0
 8002b52:	b083      	sub	sp, #12
 8002b54:	483e      	ldr	r0, [pc, #248]	; (8002c50 <_get_semihosting_exts+0x104>)
 8002b56:	4688      	mov	r8, r1
 8002b58:	2100      	movs	r1, #0
 8002b5a:	4616      	mov	r6, r2
 8002b5c:	f7ff ff86 	bl	8002a6c <_swiopen>
 8002b60:	2100      	movs	r1, #0
 8002b62:	4604      	mov	r4, r0
 8002b64:	4632      	mov	r2, r6
 8002b66:	4638      	mov	r0, r7
 8002b68:	f7fd fe58 	bl	800081c <memset>
 8002b6c:	1c61      	adds	r1, r4, #1
 8002b6e:	d06d      	beq.n	8002c4c <_get_semihosting_exts+0x100>
 8002b70:	4b38      	ldr	r3, [pc, #224]	; (8002c54 <_get_semihosting_exts+0x108>)
 8002b72:	6818      	ldr	r0, [r3, #0]
 8002b74:	b110      	cbz	r0, 8002b7c <_get_semihosting_exts+0x30>
 8002b76:	6b83      	ldr	r3, [r0, #56]	; 0x38
 8002b78:	2b00      	cmp	r3, #0
 8002b7a:	d042      	beq.n	8002c02 <_get_semihosting_exts+0xb6>
 8002b7c:	2c13      	cmp	r4, #19
 8002b7e:	d844      	bhi.n	8002c0a <_get_semihosting_exts+0xbe>
 8002b80:	4d35      	ldr	r5, [pc, #212]	; (8002c58 <_get_semihosting_exts+0x10c>)
 8002b82:	f855 3034 	ldr.w	r3, [r5, r4, lsl #3]
 8002b86:	3301      	adds	r3, #1
 8002b88:	d03f      	beq.n	8002c0a <_get_semihosting_exts+0xbe>
 8002b8a:	eb05 09c4 	add.w	r9, r5, r4, lsl #3
 8002b8e:	250c      	movs	r5, #12
 8002b90:	4628      	mov	r0, r5
 8002b92:	4649      	mov	r1, r9
 8002b94:	beab      	bkpt	0x00ab
 8002b96:	4605      	mov	r5, r0
 8002b98:	1c6a      	adds	r2, r5, #1
 8002b9a:	d039      	beq.n	8002c10 <_get_semihosting_exts+0xc4>
 8002b9c:	2d03      	cmp	r5, #3
 8002b9e:	dd41      	ble.n	8002c24 <_get_semihosting_exts+0xd8>
 8002ba0:	3d03      	subs	r5, #3
 8002ba2:	42b5      	cmp	r5, r6
 8002ba4:	dd3e      	ble.n	8002c24 <_get_semihosting_exts+0xd8>
 8002ba6:	2204      	movs	r2, #4
 8002ba8:	eb0d 0102 	add.w	r1, sp, r2
 8002bac:	4620      	mov	r0, r4
 8002bae:	f7ff fd2b 	bl	8002608 <_read>
 8002bb2:	2803      	cmp	r0, #3
 8002bb4:	dd36      	ble.n	8002c24 <_get_semihosting_exts+0xd8>
 8002bb6:	f89d 3004 	ldrb.w	r3, [sp, #4]
 8002bba:	2b53      	cmp	r3, #83	; 0x53
 8002bbc:	d132      	bne.n	8002c24 <_get_semihosting_exts+0xd8>
 8002bbe:	f89d 3005 	ldrb.w	r3, [sp, #5]
 8002bc2:	2b48      	cmp	r3, #72	; 0x48
 8002bc4:	d12e      	bne.n	8002c24 <_get_semihosting_exts+0xd8>
 8002bc6:	f89d 3006 	ldrb.w	r3, [sp, #6]
 8002bca:	2b46      	cmp	r3, #70	; 0x46
 8002bcc:	d12a      	bne.n	8002c24 <_get_semihosting_exts+0xd8>
 8002bce:	f89d 3007 	ldrb.w	r3, [sp, #7]
 8002bd2:	2b42      	cmp	r3, #66	; 0x42
 8002bd4:	d126      	bne.n	8002c24 <_get_semihosting_exts+0xd8>
 8002bd6:	2201      	movs	r2, #1
 8002bd8:	4641      	mov	r1, r8
 8002bda:	4620      	mov	r0, r4
 8002bdc:	f7ff fd5c 	bl	8002698 <_swilseek>
 8002be0:	2800      	cmp	r0, #0
 8002be2:	db1f      	blt.n	8002c24 <_get_semihosting_exts+0xd8>
 8002be4:	4632      	mov	r2, r6
 8002be6:	4639      	mov	r1, r7
 8002be8:	4620      	mov	r0, r4
 8002bea:	f7ff fd0d 	bl	8002608 <_read>
 8002bee:	4605      	mov	r5, r0
 8002bf0:	4620      	mov	r0, r4
 8002bf2:	f7ff fe5d 	bl	80028b0 <_close>
 8002bf6:	1c6b      	adds	r3, r5, #1
 8002bf8:	d01d      	beq.n	8002c36 <_get_semihosting_exts+0xea>
 8002bfa:	4628      	mov	r0, r5
 8002bfc:	b003      	add	sp, #12
 8002bfe:	e8bd 83f0 	ldmia.w	sp!, {r4, r5, r6, r7, r8, r9, pc}
 8002c02:	f7fd ff69 	bl	8000ad8 <__sinit>
 8002c06:	2c13      	cmp	r4, #19
 8002c08:	d9ba      	bls.n	8002b80 <_get_semihosting_exts+0x34>
 8002c0a:	f04f 0900 	mov.w	r9, #0
 8002c0e:	e7be      	b.n	8002b8e <_get_semihosting_exts+0x42>
 8002c10:	f000 fa2a 	bl	8003068 <__errno>
 8002c14:	2613      	movs	r6, #19
 8002c16:	4605      	mov	r5, r0
 8002c18:	2700      	movs	r7, #0
 8002c1a:	4630      	mov	r0, r6
 8002c1c:	4639      	mov	r1, r7
 8002c1e:	beab      	bkpt	0x00ab
 8002c20:	4606      	mov	r6, r0
 8002c22:	602e      	str	r6, [r5, #0]
 8002c24:	4620      	mov	r0, r4
 8002c26:	f7ff fe43 	bl	80028b0 <_close>
 8002c2a:	f04f 35ff 	mov.w	r5, #4294967295
 8002c2e:	4628      	mov	r0, r5
 8002c30:	b003      	add	sp, #12
 8002c32:	e8bd 83f0 	ldmia.w	sp!, {r4, r5, r6, r7, r8, r9, pc}
 8002c36:	f000 fa17 	bl	8003068 <__errno>
 8002c3a:	2613      	movs	r6, #19
 8002c3c:	4604      	mov	r4, r0
 8002c3e:	2700      	movs	r7, #0
 8002c40:	4630      	mov	r0, r6
 8002c42:	4639      	mov	r1, r7
 8002c44:	beab      	bkpt	0x00ab
 8002c46:	4606      	mov	r6, r0
 8002c48:	6026      	str	r6, [r4, #0]
 8002c4a:	e7d6      	b.n	8002bfa <_get_semihosting_exts+0xae>
 8002c4c:	4625      	mov	r5, r4
 8002c4e:	e7d4      	b.n	8002bfa <_get_semihosting_exts+0xae>
 8002c50:	080030ec 	.word	0x080030ec
 8002c54:	20000128 	.word	0x20000128
 8002c58:	20000a70 	.word	0x20000a70

08002c5c <_has_ext_exit_extended>:
 8002c5c:	b530      	push	{r4, r5, lr}
 8002c5e:	4c0f      	ldr	r4, [pc, #60]	; (8002c9c <_has_ext_exit_extended+0x40>)
 8002c60:	6820      	ldr	r0, [r4, #0]
 8002c62:	2800      	cmp	r0, #0
 8002c64:	b083      	sub	sp, #12
 8002c66:	db01      	blt.n	8002c6c <_has_ext_exit_extended+0x10>
 8002c68:	b003      	add	sp, #12
 8002c6a:	bd30      	pop	{r4, r5, pc}
 8002c6c:	4d0c      	ldr	r5, [pc, #48]	; (8002ca0 <_has_ext_exit_extended+0x44>)
 8002c6e:	2100      	movs	r1, #0
 8002c70:	2201      	movs	r2, #1
 8002c72:	a801      	add	r0, sp, #4
 8002c74:	6021      	str	r1, [r4, #0]
 8002c76:	602a      	str	r2, [r5, #0]
 8002c78:	f7ff ff68 	bl	8002b4c <_get_semihosting_exts>
 8002c7c:	2800      	cmp	r0, #0
 8002c7e:	dd09      	ble.n	8002c94 <_has_ext_exit_extended+0x38>
 8002c80:	f89d 3004 	ldrb.w	r3, [sp, #4]
 8002c84:	f003 0001 	and.w	r0, r3, #1
 8002c88:	f003 0302 	and.w	r3, r3, #2
 8002c8c:	6020      	str	r0, [r4, #0]
 8002c8e:	602b      	str	r3, [r5, #0]
 8002c90:	b003      	add	sp, #12
 8002c92:	bd30      	pop	{r4, r5, pc}
 8002c94:	6820      	ldr	r0, [r4, #0]
 8002c96:	b003      	add	sp, #12
 8002c98:	bd30      	pop	{r4, r5, pc}
 8002c9a:	bf00      	nop
 8002c9c:	20000970 	.word	0x20000970
 8002ca0:	20000974 	.word	0x20000974

08002ca4 <_has_ext_stdout_stderr>:
 8002ca4:	b530      	push	{r4, r5, lr}
 8002ca6:	4c0f      	ldr	r4, [pc, #60]	; (8002ce4 <_has_ext_stdout_stderr+0x40>)
 8002ca8:	6820      	ldr	r0, [r4, #0]
 8002caa:	2800      	cmp	r0, #0
 8002cac:	b083      	sub	sp, #12
 8002cae:	db01      	blt.n	8002cb4 <_has_ext_stdout_stderr+0x10>
 8002cb0:	b003      	add	sp, #12
 8002cb2:	bd30      	pop	{r4, r5, pc}
 8002cb4:	4d0c      	ldr	r5, [pc, #48]	; (8002ce8 <_has_ext_stdout_stderr+0x44>)
 8002cb6:	2100      	movs	r1, #0
 8002cb8:	2201      	movs	r2, #1
 8002cba:	a801      	add	r0, sp, #4
 8002cbc:	6029      	str	r1, [r5, #0]
 8002cbe:	6022      	str	r2, [r4, #0]
 8002cc0:	f7ff ff44 	bl	8002b4c <_get_semihosting_exts>
 8002cc4:	2800      	cmp	r0, #0
 8002cc6:	dd09      	ble.n	8002cdc <_has_ext_stdout_stderr+0x38>
 8002cc8:	f89d 0004 	ldrb.w	r0, [sp, #4]
 8002ccc:	f000 0301 	and.w	r3, r0, #1
 8002cd0:	f000 0002 	and.w	r0, r0, #2
 8002cd4:	602b      	str	r3, [r5, #0]
 8002cd6:	6020      	str	r0, [r4, #0]
 8002cd8:	b003      	add	sp, #12
 8002cda:	bd30      	pop	{r4, r5, pc}
 8002cdc:	6820      	ldr	r0, [r4, #0]
 8002cde:	b003      	add	sp, #12
 8002ce0:	bd30      	pop	{r4, r5, pc}
 8002ce2:	bf00      	nop
 8002ce4:	20000974 	.word	0x20000974
 8002ce8:	20000970 	.word	0x20000970

08002cec <initialise_monitor_handles>:
 8002cec:	e92d 4ff0 	stmdb	sp!, {r4, r5, r6, r7, r8, r9, sl, fp, lr}
 8002cf0:	b085      	sub	sp, #20
 8002cf2:	4f4d      	ldr	r7, [pc, #308]	; (8002e28 <initialise_monitor_handles+0x13c>)
 8002cf4:	9701      	str	r7, [sp, #4]
 8002cf6:	2303      	movs	r3, #3
 8002cf8:	2400      	movs	r4, #0
 8002cfa:	9303      	str	r3, [sp, #12]
 8002cfc:	f04f 0801 	mov.w	r8, #1
 8002d00:	ae01      	add	r6, sp, #4
 8002d02:	9402      	str	r4, [sp, #8]
 8002d04:	4640      	mov	r0, r8
 8002d06:	4631      	mov	r1, r6
 8002d08:	beab      	bkpt	0x00ab
 8002d0a:	4680      	mov	r8, r0
 8002d0c:	4d47      	ldr	r5, [pc, #284]	; (8002e2c <initialise_monitor_handles+0x140>)
 8002d0e:	4623      	mov	r3, r4
 8002d10:	4c47      	ldr	r4, [pc, #284]	; (8002e30 <initialise_monitor_handles+0x144>)
 8002d12:	f8c5 8000 	str.w	r8, [r5]
 8002d16:	f04f 32ff 	mov.w	r2, #4294967295
 8002d1a:	f844 2033 	str.w	r2, [r4, r3, lsl #3]
 8002d1e:	3301      	adds	r3, #1
 8002d20:	2b14      	cmp	r3, #20
 8002d22:	d1fa      	bne.n	8002d1a <initialise_monitor_handles+0x2e>
 8002d24:	f8df 810c 	ldr.w	r8, [pc, #268]	; 8002e34 <initialise_monitor_handles+0x148>
 8002d28:	f8d8 3000 	ldr.w	r3, [r8]
 8002d2c:	2b00      	cmp	r3, #0
 8002d2e:	db53      	blt.n	8002dd8 <initialise_monitor_handles+0xec>
 8002d30:	b94b      	cbnz	r3, 8002d46 <initialise_monitor_handles+0x5a>
 8002d32:	4a41      	ldr	r2, [pc, #260]	; (8002e38 <initialise_monitor_handles+0x14c>)
 8002d34:	6811      	ldr	r1, [r2, #0]
 8002d36:	3101      	adds	r1, #1
 8002d38:	d066      	beq.n	8002e08 <initialise_monitor_handles+0x11c>
 8002d3a:	682a      	ldr	r2, [r5, #0]
 8002d3c:	e9c4 2300 	strd	r2, r3, [r4]
 8002d40:	b005      	add	sp, #20
 8002d42:	e8bd 8ff0 	ldmia.w	sp!, {r4, r5, r6, r7, r8, r9, sl, fp, pc}
 8002d46:	f04f 0b03 	mov.w	fp, #3
 8002d4a:	2304      	movs	r3, #4
 8002d4c:	9701      	str	r7, [sp, #4]
 8002d4e:	f04f 0901 	mov.w	r9, #1
 8002d52:	f8cd b00c 	str.w	fp, [sp, #12]
 8002d56:	9302      	str	r3, [sp, #8]
 8002d58:	4648      	mov	r0, r9
 8002d5a:	4631      	mov	r1, r6
 8002d5c:	beab      	bkpt	0x00ab
 8002d5e:	4682      	mov	sl, r0
 8002d60:	9701      	str	r7, [sp, #4]
 8002d62:	4f36      	ldr	r7, [pc, #216]	; (8002e3c <initialise_monitor_handles+0x150>)
 8002d64:	f8cd b00c 	str.w	fp, [sp, #12]
 8002d68:	2308      	movs	r3, #8
 8002d6a:	f8c7 a000 	str.w	sl, [r7]
 8002d6e:	9302      	str	r3, [sp, #8]
 8002d70:	4648      	mov	r0, r9
 8002d72:	4631      	mov	r1, r6
 8002d74:	beab      	bkpt	0x00ab
 8002d76:	4606      	mov	r6, r0
 8002d78:	f8df 90bc 	ldr.w	r9, [pc, #188]	; 8002e38 <initialise_monitor_handles+0x14c>
 8002d7c:	f8d8 3000 	ldr.w	r3, [r8]
 8002d80:	f8c9 6000 	str.w	r6, [r9]
 8002d84:	3601      	adds	r6, #1
 8002d86:	bf04      	itt	eq
 8002d88:	683a      	ldreq	r2, [r7, #0]
 8002d8a:	f8c9 2000 	streq.w	r2, [r9]
 8002d8e:	2100      	movs	r1, #0
 8002d90:	682a      	ldr	r2, [r5, #0]
 8002d92:	6022      	str	r2, [r4, #0]
 8002d94:	428b      	cmp	r3, r1
 8002d96:	6061      	str	r1, [r4, #4]
 8002d98:	da12      	bge.n	8002dc0 <initialise_monitor_handles+0xd4>
 8002d9a:	4d29      	ldr	r5, [pc, #164]	; (8002e40 <initialise_monitor_handles+0x154>)
 8002d9c:	2201      	movs	r2, #1
 8002d9e:	4668      	mov	r0, sp
 8002da0:	f8c8 2000 	str.w	r2, [r8]
 8002da4:	6029      	str	r1, [r5, #0]
 8002da6:	f7ff fed1 	bl	8002b4c <_get_semihosting_exts>
 8002daa:	2800      	cmp	r0, #0
 8002dac:	dd38      	ble.n	8002e20 <initialise_monitor_handles+0x134>
 8002dae:	f89d 3000 	ldrb.w	r3, [sp]
 8002db2:	f003 0201 	and.w	r2, r3, #1
 8002db6:	f003 0302 	and.w	r3, r3, #2
 8002dba:	602a      	str	r2, [r5, #0]
 8002dbc:	f8c8 3000 	str.w	r3, [r8]
 8002dc0:	b13b      	cbz	r3, 8002dd2 <initialise_monitor_handles+0xe6>
 8002dc2:	6839      	ldr	r1, [r7, #0]
 8002dc4:	f8d9 2000 	ldr.w	r2, [r9]
 8002dc8:	2300      	movs	r3, #0
 8002dca:	e9c4 1302 	strd	r1, r3, [r4, #8]
 8002dce:	e9c4 2304 	strd	r2, r3, [r4, #16]
 8002dd2:	b005      	add	sp, #20
 8002dd4:	e8bd 8ff0 	ldmia.w	sp!, {r4, r5, r6, r7, r8, r9, sl, fp, pc}
 8002dd8:	f8df 9064 	ldr.w	r9, [pc, #100]	; 8002e40 <initialise_monitor_handles+0x154>
 8002ddc:	2100      	movs	r1, #0
 8002dde:	2201      	movs	r2, #1
 8002de0:	4668      	mov	r0, sp
 8002de2:	f8c8 2000 	str.w	r2, [r8]
 8002de6:	f8c9 1000 	str.w	r1, [r9]
 8002dea:	f7ff feaf 	bl	8002b4c <_get_semihosting_exts>
 8002dee:	2800      	cmp	r0, #0
 8002df0:	dd13      	ble.n	8002e1a <initialise_monitor_handles+0x12e>
 8002df2:	f89d 3000 	ldrb.w	r3, [sp]
 8002df6:	f003 0201 	and.w	r2, r3, #1
 8002dfa:	f003 0302 	and.w	r3, r3, #2
 8002dfe:	f8c9 2000 	str.w	r2, [r9]
 8002e02:	f8c8 3000 	str.w	r3, [r8]
 8002e06:	e793      	b.n	8002d30 <initialise_monitor_handles+0x44>
 8002e08:	480c      	ldr	r0, [pc, #48]	; (8002e3c <initialise_monitor_handles+0x150>)
 8002e0a:	6829      	ldr	r1, [r5, #0]
 8002e0c:	6800      	ldr	r0, [r0, #0]
 8002e0e:	6010      	str	r0, [r2, #0]
 8002e10:	e9c4 1300 	strd	r1, r3, [r4]
 8002e14:	b005      	add	sp, #20
 8002e16:	e8bd 8ff0 	ldmia.w	sp!, {r4, r5, r6, r7, r8, r9, sl, fp, pc}
 8002e1a:	f8d8 3000 	ldr.w	r3, [r8]
 8002e1e:	e787      	b.n	8002d30 <initialise_monitor_handles+0x44>
 8002e20:	f8d8 3000 	ldr.w	r3, [r8]
 8002e24:	e7cc      	b.n	8002dc0 <initialise_monitor_handles+0xd4>
 8002e26:	bf00      	nop
 8002e28:	08003104 	.word	0x08003104
 8002e2c:	20000a68 	.word	0x20000a68
 8002e30:	20000a70 	.word	0x20000a70
 8002e34:	20000974 	.word	0x20000974
 8002e38:	20000a64 	.word	0x20000a64
 8002e3c:	20000a6c 	.word	0x20000a6c
 8002e40:	20000970 	.word	0x20000970

08002e44 <_link>:
 8002e44:	b508      	push	{r3, lr}
 8002e46:	f000 f90f 	bl	8003068 <__errno>
 8002e4a:	2358      	movs	r3, #88	; 0x58
 8002e4c:	6003      	str	r3, [r0, #0]
 8002e4e:	f04f 30ff 	mov.w	r0, #4294967295
 8002e52:	bd08      	pop	{r3, pc}

08002e54 <_unlink>:
 8002e54:	b5f0      	push	{r4, r5, r6, r7, lr}
 8002e56:	b083      	sub	sp, #12
 8002e58:	240e      	movs	r4, #14
 8002e5a:	9000      	str	r0, [sp, #0]
 8002e5c:	f7fd fb50 	bl	8000500 <strlen>
 8002e60:	9001      	str	r0, [sp, #4]
 8002e62:	466d      	mov	r5, sp
 8002e64:	4620      	mov	r0, r4
 8002e66:	4629      	mov	r1, r5
 8002e68:	beab      	bkpt	0x00ab
 8002e6a:	4604      	mov	r4, r0
 8002e6c:	1c63      	adds	r3, r4, #1
 8002e6e:	bf18      	it	ne
 8002e70:	2400      	movne	r4, #0
 8002e72:	d002      	beq.n	8002e7a <_unlink+0x26>
 8002e74:	4620      	mov	r0, r4
 8002e76:	b003      	add	sp, #12
 8002e78:	bdf0      	pop	{r4, r5, r6, r7, pc}
 8002e7a:	f000 f8f5 	bl	8003068 <__errno>
 8002e7e:	2613      	movs	r6, #19
 8002e80:	4605      	mov	r5, r0
 8002e82:	2700      	movs	r7, #0
 8002e84:	4630      	mov	r0, r6
 8002e86:	4639      	mov	r1, r7
 8002e88:	beab      	bkpt	0x00ab
 8002e8a:	4606      	mov	r6, r0
 8002e8c:	4620      	mov	r0, r4
 8002e8e:	602e      	str	r6, [r5, #0]
 8002e90:	b003      	add	sp, #12
 8002e92:	bdf0      	pop	{r4, r5, r6, r7, pc}

08002e94 <_gettimeofday>:
 8002e94:	b5f0      	push	{r4, r5, r6, r7, lr}
 8002e96:	460d      	mov	r5, r1
 8002e98:	b150      	cbz	r0, 8002eb0 <_gettimeofday+0x1c>
 8002e9a:	4604      	mov	r4, r0
 8002e9c:	2611      	movs	r6, #17
 8002e9e:	2700      	movs	r7, #0
 8002ea0:	4630      	mov	r0, r6
 8002ea2:	4639      	mov	r1, r7
 8002ea4:	beab      	bkpt	0x00ab
 8002ea6:	4606      	mov	r6, r0
 8002ea8:	17f3      	asrs	r3, r6, #31
 8002eaa:	e9c4 6300 	strd	r6, r3, [r4]
 8002eae:	60a7      	str	r7, [r4, #8]
 8002eb0:	b115      	cbz	r5, 8002eb8 <_gettimeofday+0x24>
 8002eb2:	2300      	movs	r3, #0
 8002eb4:	e9c5 3300 	strd	r3, r3, [r5]
 8002eb8:	2000      	movs	r0, #0
 8002eba:	bdf0      	pop	{r4, r5, r6, r7, pc}

08002ebc <_clock>:
 8002ebc:	b530      	push	{r4, r5, lr}
 8002ebe:	2410      	movs	r4, #16
 8002ec0:	2500      	movs	r5, #0
 8002ec2:	4620      	mov	r0, r4
 8002ec4:	4629      	mov	r1, r5
 8002ec6:	beab      	bkpt	0x00ab
 8002ec8:	4604      	mov	r4, r0
 8002eca:	4620      	mov	r0, r4
 8002ecc:	bd30      	pop	{r4, r5, pc}
 8002ece:	bf00      	nop

08002ed0 <_times>:
 8002ed0:	b570      	push	{r4, r5, r6, lr}
 8002ed2:	4604      	mov	r4, r0
 8002ed4:	2510      	movs	r5, #16
 8002ed6:	2600      	movs	r6, #0
 8002ed8:	4628      	mov	r0, r5
 8002eda:	4631      	mov	r1, r6
 8002edc:	beab      	bkpt	0x00ab
 8002ede:	4605      	mov	r5, r0
 8002ee0:	b11c      	cbz	r4, 8002eea <_times+0x1a>
 8002ee2:	e9c4 5600 	strd	r5, r6, [r4]
 8002ee6:	e9c4 6602 	strd	r6, r6, [r4, #8]
 8002eea:	4628      	mov	r0, r5
 8002eec:	bd70      	pop	{r4, r5, r6, pc}
 8002eee:	bf00      	nop

08002ef0 <_isatty>:
 8002ef0:	4b17      	ldr	r3, [pc, #92]	; (8002f50 <_isatty+0x60>)
 8002ef2:	681b      	ldr	r3, [r3, #0]
 8002ef4:	b570      	push	{r4, r5, r6, lr}
 8002ef6:	4605      	mov	r5, r0
 8002ef8:	b10b      	cbz	r3, 8002efe <_isatty+0xe>
 8002efa:	6b9a      	ldr	r2, [r3, #56]	; 0x38
 8002efc:	b1e2      	cbz	r2, 8002f38 <_isatty+0x48>
 8002efe:	2d13      	cmp	r5, #19
 8002f00:	d81f      	bhi.n	8002f42 <_isatty+0x52>
 8002f02:	4814      	ldr	r0, [pc, #80]	; (8002f54 <_isatty+0x64>)
 8002f04:	f850 3035 	ldr.w	r3, [r0, r5, lsl #3]
 8002f08:	3301      	adds	r3, #1
 8002f0a:	d01a      	beq.n	8002f42 <_isatty+0x52>
 8002f0c:	2409      	movs	r4, #9
 8002f0e:	eb00 05c5 	add.w	r5, r0, r5, lsl #3
 8002f12:	4620      	mov	r0, r4
 8002f14:	4629      	mov	r1, r5
 8002f16:	beab      	bkpt	0x00ab
 8002f18:	4604      	mov	r4, r0
 8002f1a:	2c01      	cmp	r4, #1
 8002f1c:	4620      	mov	r0, r4
 8002f1e:	d00a      	beq.n	8002f36 <_isatty+0x46>
 8002f20:	f000 f8a2 	bl	8003068 <__errno>
 8002f24:	2613      	movs	r6, #19
 8002f26:	4605      	mov	r5, r0
 8002f28:	2400      	movs	r4, #0
 8002f2a:	4630      	mov	r0, r6
 8002f2c:	4621      	mov	r1, r4
 8002f2e:	beab      	bkpt	0x00ab
 8002f30:	4606      	mov	r6, r0
 8002f32:	602e      	str	r6, [r5, #0]
 8002f34:	4620      	mov	r0, r4
 8002f36:	bd70      	pop	{r4, r5, r6, pc}
 8002f38:	4618      	mov	r0, r3
 8002f3a:	f7fd fdcd 	bl	8000ad8 <__sinit>
 8002f3e:	2d13      	cmp	r5, #19
 8002f40:	d9df      	bls.n	8002f02 <_isatty+0x12>
 8002f42:	f000 f891 	bl	8003068 <__errno>
 8002f46:	2309      	movs	r3, #9
 8002f48:	6003      	str	r3, [r0, #0]
 8002f4a:	2000      	movs	r0, #0
 8002f4c:	bd70      	pop	{r4, r5, r6, pc}
 8002f4e:	bf00      	nop
 8002f50:	20000128 	.word	0x20000128
 8002f54:	20000a70 	.word	0x20000a70

08002f58 <_system>:
 8002f58:	b5f0      	push	{r4, r5, r6, r7, lr}
 8002f5a:	b083      	sub	sp, #12
 8002f5c:	b1d0      	cbz	r0, 8002f94 <_system+0x3c>
 8002f5e:	9000      	str	r0, [sp, #0]
 8002f60:	f7fd face 	bl	8000500 <strlen>
 8002f64:	2412      	movs	r4, #18
 8002f66:	9001      	str	r0, [sp, #4]
 8002f68:	466d      	mov	r5, sp
 8002f6a:	4620      	mov	r0, r4
 8002f6c:	4629      	mov	r1, r5
 8002f6e:	beab      	bkpt	0x00ab
 8002f70:	4604      	mov	r4, r0
 8002f72:	1c63      	adds	r3, r4, #1
 8002f74:	4625      	mov	r5, r4
 8002f76:	d011      	beq.n	8002f9c <_system+0x44>
 8002f78:	2cff      	cmp	r4, #255	; 0xff
 8002f7a:	d805      	bhi.n	8002f88 <_system+0x30>
 8002f7c:	b124      	cbz	r4, 8002f88 <_system+0x30>
 8002f7e:	0065      	lsls	r5, r4, #1
 8002f80:	f3c5 2307 	ubfx	r3, r5, #8, #8
 8002f84:	42a3      	cmp	r3, r4
 8002f86:	d102      	bne.n	8002f8e <_system+0x36>
 8002f88:	4628      	mov	r0, r5
 8002f8a:	b003      	add	sp, #12
 8002f8c:	bdf0      	pop	{r4, r5, r6, r7, pc}
 8002f8e:	006d      	lsls	r5, r5, #1
 8002f90:	d1f6      	bne.n	8002f80 <_system+0x28>
 8002f92:	e7f9      	b.n	8002f88 <_system+0x30>
 8002f94:	2501      	movs	r5, #1
 8002f96:	4628      	mov	r0, r5
 8002f98:	b003      	add	sp, #12
 8002f9a:	bdf0      	pop	{r4, r5, r6, r7, pc}
 8002f9c:	f000 f864 	bl	8003068 <__errno>
 8002fa0:	2613      	movs	r6, #19
 8002fa2:	4604      	mov	r4, r0
 8002fa4:	2700      	movs	r7, #0
 8002fa6:	4630      	mov	r0, r6
 8002fa8:	4639      	mov	r1, r7
 8002faa:	beab      	bkpt	0x00ab
 8002fac:	4606      	mov	r6, r0
 8002fae:	6026      	str	r6, [r4, #0]
 8002fb0:	e7ea      	b.n	8002f88 <_system+0x30>
 8002fb2:	bf00      	nop

08002fb4 <_rename>:
 8002fb4:	b5f0      	push	{r4, r5, r6, r7, lr}
 8002fb6:	b085      	sub	sp, #20
 8002fb8:	460c      	mov	r4, r1
 8002fba:	9000      	str	r0, [sp, #0]
 8002fbc:	f7fd faa0 	bl	8000500 <strlen>
 8002fc0:	4603      	mov	r3, r0
 8002fc2:	4620      	mov	r0, r4
 8002fc4:	e9cd 3401 	strd	r3, r4, [sp, #4]
 8002fc8:	f7fd fa9a 	bl	8000500 <strlen>
 8002fcc:	240f      	movs	r4, #15
 8002fce:	9003      	str	r0, [sp, #12]
 8002fd0:	466d      	mov	r5, sp
 8002fd2:	4620      	mov	r0, r4
 8002fd4:	4629      	mov	r1, r5
 8002fd6:	beab      	bkpt	0x00ab
 8002fd8:	4604      	mov	r4, r0
 8002fda:	1c63      	adds	r3, r4, #1
 8002fdc:	d006      	beq.n	8002fec <_rename+0x38>
 8002fde:	3c00      	subs	r4, #0
 8002fe0:	bf18      	it	ne
 8002fe2:	2401      	movne	r4, #1
 8002fe4:	4264      	negs	r4, r4
 8002fe6:	4620      	mov	r0, r4
 8002fe8:	b005      	add	sp, #20
 8002fea:	bdf0      	pop	{r4, r5, r6, r7, pc}
 8002fec:	f000 f83c 	bl	8003068 <__errno>
 8002ff0:	2613      	movs	r6, #19
 8002ff2:	4605      	mov	r5, r0
 8002ff4:	2700      	movs	r7, #0
 8002ff6:	4630      	mov	r0, r6
 8002ff8:	4639      	mov	r1, r7
 8002ffa:	beab      	bkpt	0x00ab
 8002ffc:	4606      	mov	r6, r0
 8002ffe:	4620      	mov	r0, r4
 8003000:	602e      	str	r6, [r5, #0]
 8003002:	b005      	add	sp, #20
 8003004:	bdf0      	pop	{r4, r5, r6, r7, pc}
 8003006:	bf00      	nop

08003008 <_exit>:
 8003008:	4601      	mov	r1, r0
 800300a:	b508      	push	{r3, lr}
 800300c:	4a02      	ldr	r2, [pc, #8]	; (8003018 <_exit+0x10>)
 800300e:	f04f 30ff 	mov.w	r0, #4294967295
 8003012:	f000 f803 	bl	800301c <_kill_shared>
 8003016:	bf00      	nop
 8003018:	00020026 	.word	0x00020026

0800301c <_kill_shared>:
 800301c:	b500      	push	{lr}
 800301e:	b083      	sub	sp, #12
 8003020:	e9cd 2100 	strd	r2, r1, [sp]
 8003024:	f7ff fe1a 	bl	8002c5c <_has_ext_exit_extended>
 8003028:	2800      	cmp	r0, #0
 800302a:	bf14      	ite	ne
 800302c:	2420      	movne	r4, #32
 800302e:	2418      	moveq	r4, #24
 8003030:	f7ff fe14 	bl	8002c5c <_has_ext_exit_extended>
 8003034:	b120      	cbz	r0, 8003040 <_kill_shared+0x24>
 8003036:	466d      	mov	r5, sp
 8003038:	4620      	mov	r0, r4
 800303a:	4629      	mov	r1, r5
 800303c:	beab      	bkpt	0x00ab
 800303e:	4604      	mov	r4, r0
 8003040:	9d00      	ldr	r5, [sp, #0]
 8003042:	4620      	mov	r0, r4
 8003044:	4629      	mov	r1, r5
 8003046:	beab      	bkpt	0x00ab
 8003048:	4604      	mov	r4, r0
 800304a:	bf00      	nop

0800304c <_kill>:
 800304c:	2906      	cmp	r1, #6
 800304e:	b508      	push	{r3, lr}
 8003050:	d002      	beq.n	8003058 <_kill+0xc>
 8003052:	4a03      	ldr	r2, [pc, #12]	; (8003060 <_kill+0x14>)
 8003054:	f7ff ffe2 	bl	800301c <_kill_shared>
 8003058:	4a02      	ldr	r2, [pc, #8]	; (8003064 <_kill+0x18>)
 800305a:	f7ff ffdf 	bl	800301c <_kill_shared>
 800305e:	bf00      	nop
 8003060:	00020026 	.word	0x00020026
 8003064:	00020023 	.word	0x00020023

08003068 <__errno>:
 8003068:	4b01      	ldr	r3, [pc, #4]	; (8003070 <__errno+0x8>)
 800306a:	6818      	ldr	r0, [r3, #0]
 800306c:	4770      	bx	lr
 800306e:	bf00      	nop
 8003070:	20000128 	.word	0x20000128

08003074 <_init>:
 8003074:	b5f8      	push	{r3, r4, r5, r6, r7, lr}
 8003076:	bf00      	nop
 8003078:	bcf8      	pop	{r3, r4, r5, r6, r7}
 800307a:	bc08      	pop	{r3}
 800307c:	469e      	mov	lr, r3
 800307e:	4770      	bx	lr

08003080 <_fini>:
 8003080:	b5f8      	push	{r3, r4, r5, r6, r7, lr}
 8003082:	bf00      	nop
 8003084:	bcf8      	pop	{r3, r4, r5, r6, r7}
 8003086:	bc08      	pop	{r3}
 8003088:	469e      	mov	lr, r3
 800308a:	4770      	bx	lr

0800308c <all_implied_fbits>:
 800308c:	3e3b 3e0b 3e10 3e25 3e33 3e03 3e06 3e14     ;>.>.>%>3>.>.>.>
 800309c:	3e0e 3e0d 3e24 3e12 3e27 3e02 3e18 3e09     .>.>$>.>'>.>.>.>
 80030ac:	3e0a 0000 6548 6c6c 206f 6f77 6c72 2164     .>..Hello world!
 80030bc:	0000 0000                                   ....

080030c0 <all_implied_fbits>:
 80030c0:	3e3b 3e0b 3e10 3e25 3e33 3e03 3e06 3e14     ;>.>.>%>3>.>.>.>
 80030d0:	3e0e 3e0d 3e24 3e12 3e27 3e02 3e18 3e09     .>.>$>.>'>.>.>.>
 80030e0:	3e0a 0000                                   .>..

080030e4 <_global_impure_ptr>:
 80030e4:	0130 2000 000a 0000 733a 6d65 6869 736f     0.. ....:semihos
 80030f4:	6974 676e 662d 6165 7574 6572 0073 0000     ting-features...
 8003104:	743a 0074                                   :tt.
